00000000  7F45              jg 0x47
00000002  4C                rex.wr
00000003  460201            add r8b,[rcx]
00000006  0100              add [rax],eax
00000008  0000              add [rax],al
0000000A  0000              add [rax],al
0000000C  0000              add [rax],al
0000000E  0000              add [rax],al
00000010  0300              add eax,[rax]
00000012  3E0001            add [ds:rcx],al
00000015  0000              add [rax],al
00000017  004005            add [rax+0x5],al
0000001A  0000              add [rax],al
0000001C  0000              add [rax],al
0000001E  0000              add [rax],al
00000020  400000            add [rax],al
00000023  0000              add [rax],al
00000025  0000              add [rax],al
00000027  005019            add [rax+0x19],dl
0000002A  0000              add [rax],al
0000002C  0000              add [rax],al
0000002E  0000              add [rax],al
00000030  0000              add [rax],al
00000032  0000              add [rax],al
00000034  400038            add [rax],dil
00000037  0009              add [rcx],cl
00000039  004000            add [rax+0x0],al
0000003C  1D001C0006        sbb eax,0x6001c00
00000041  0000              add [rax],al
00000043  000400            add [rax+rax],al
00000046  0000              add [rax],al
00000048  400000            add [rax],al
0000004B  0000              add [rax],al
0000004D  0000              add [rax],al
0000004F  004000            add [rax+0x0],al
00000052  0000              add [rax],al
00000054  0000              add [rax],al
00000056  0000              add [rax],al
00000058  400000            add [rax],al
0000005B  0000              add [rax],al
0000005D  0000              add [rax],al
0000005F  00F8              add al,bh
00000061  0100              add [rax],eax
00000063  0000              add [rax],al
00000065  0000              add [rax],al
00000067  00F8              add al,bh
00000069  0100              add [rax],eax
0000006B  0000              add [rax],al
0000006D  0000              add [rax],al
0000006F  0008              add [rax],cl
00000071  0000              add [rax],al
00000073  0000              add [rax],al
00000075  0000              add [rax],al
00000077  0003              add [rbx],al
00000079  0000              add [rax],al
0000007B  000400            add [rax+rax],al
0000007E  0000              add [rax],al
00000080  3802              cmp [rdx],al
00000082  0000              add [rax],al
00000084  0000              add [rax],al
00000086  0000              add [rax],al
00000088  3802              cmp [rdx],al
0000008A  0000              add [rax],al
0000008C  0000              add [rax],al
0000008E  0000              add [rax],al
00000090  3802              cmp [rdx],al
00000092  0000              add [rax],al
00000094  0000              add [rax],al
00000096  0000              add [rax],al
00000098  1C00              sbb al,0x0
0000009A  0000              add [rax],al
0000009C  0000              add [rax],al
0000009E  0000              add [rax],al
000000A0  1C00              sbb al,0x0
000000A2  0000              add [rax],al
000000A4  0000              add [rax],al
000000A6  0000              add [rax],al
000000A8  0100              add [rax],eax
000000AA  0000              add [rax],al
000000AC  0000              add [rax],al
000000AE  0000              add [rax],al
000000B0  0100              add [rax],eax
000000B2  0000              add [rax],al
000000B4  0500000000        add eax,0x0
000000B9  0000              add [rax],al
000000BB  0000              add [rax],al
000000BD  0000              add [rax],al
000000BF  0000              add [rax],al
000000C1  0000              add [rax],al
000000C3  0000              add [rax],al
000000C5  0000              add [rax],al
000000C7  0000              add [rax],al
000000C9  0000              add [rax],al
000000CB  0000              add [rax],al
000000CD  0000              add [rax],al
000000CF  00C8              add al,cl
000000D1  0800              or [rax],al
000000D3  0000              add [rax],al
000000D5  0000              add [rax],al
000000D7  00C8              add al,cl
000000D9  0800              or [rax],al
000000DB  0000              add [rax],al
000000DD  0000              add [rax],al
000000DF  0000              add [rax],al
000000E1  0020              add [rax],ah
000000E3  0000              add [rax],al
000000E5  0000              add [rax],al
000000E7  0001              add [rcx],al
000000E9  0000              add [rax],al
000000EB  0006              add [rsi],al
000000ED  0000              add [rax],al
000000EF  00B80D000000      add [rax+0xd],bh
000000F5  0000              add [rax],al
000000F7  00B80D200000      add [rax+0x200d],bh
000000FD  0000              add [rax],al
000000FF  00B80D200000      add [rax+0x200d],bh
00000105  0000              add [rax],al
00000107  005802            add [rax+0x2],bl
0000010A  0000              add [rax],al
0000010C  0000              add [rax],al
0000010E  0000              add [rax],al
00000110  60                db 0x60
00000111  0200              add al,[rax]
00000113  0000              add [rax],al
00000115  0000              add [rax],al
00000117  0000              add [rax],al
00000119  0020              add [rax],ah
0000011B  0000              add [rax],al
0000011D  0000              add [rax],al
0000011F  0002              add [rdx],al
00000121  0000              add [rax],al
00000123  0006              add [rsi],al
00000125  0000              add [rax],al
00000127  00C8              add al,cl
00000129  0D00000000        or eax,0x0
0000012E  0000              add [rax],al
00000130  C80D2000          enter 0x200d,0x0
00000134  0000              add [rax],al
00000136  0000              add [rax],al
00000138  C80D2000          enter 0x200d,0x0
0000013C  0000              add [rax],al
0000013E  0000              add [rax],al
00000140  F00100            lock add [rax],eax
00000143  0000              add [rax],al
00000145  0000              add [rax],al
00000147  00F0              add al,dh
00000149  0100              add [rax],eax
0000014B  0000              add [rax],al
0000014D  0000              add [rax],al
0000014F  0008              add [rax],cl
00000151  0000              add [rax],al
00000153  0000              add [rax],al
00000155  0000              add [rax],al
00000157  000400            add [rax+rax],al
0000015A  0000              add [rax],al
0000015C  0400              add al,0x0
0000015E  0000              add [rax],al
00000160  54                push rsp
00000161  0200              add al,[rax]
00000163  0000              add [rax],al
00000165  0000              add [rax],al
00000167  00540200          add [rdx+rax+0x0],dl
0000016B  0000              add [rax],al
0000016D  0000              add [rax],al
0000016F  00540200          add [rdx+rax+0x0],dl
00000173  0000              add [rax],al
00000175  0000              add [rax],al
00000177  00440000          add [rax+rax+0x0],al
0000017B  0000              add [rax],al
0000017D  0000              add [rax],al
0000017F  00440000          add [rax+rax+0x0],al
00000183  0000              add [rax],al
00000185  0000              add [rax],al
00000187  000400            add [rax+rax],al
0000018A  0000              add [rax],al
0000018C  0000              add [rax],al
0000018E  0000              add [rax],al
00000190  50                push rax
00000191  E574              in eax,0x74
00000193  640400            fs add al,0x0
00000196  0000              add [rax],al
00000198  58                pop rax
00000199  07                db 0x07
0000019A  0000              add [rax],al
0000019C  0000              add [rax],al
0000019E  0000              add [rax],al
000001A0  58                pop rax
000001A1  07                db 0x07
000001A2  0000              add [rax],al
000001A4  0000              add [rax],al
000001A6  0000              add [rax],al
000001A8  58                pop rax
000001A9  07                db 0x07
000001AA  0000              add [rax],al
000001AC  0000              add [rax],al
000001AE  0000              add [rax],al
000001B0  440000            add [rax],r8b
000001B3  0000              add [rax],al
000001B5  0000              add [rax],al
000001B7  00440000          add [rax+rax+0x0],al
000001BB  0000              add [rax],al
000001BD  0000              add [rax],al
000001BF  000400            add [rax+rax],al
000001C2  0000              add [rax],al
000001C4  0000              add [rax],al
000001C6  0000              add [rax],al
000001C8  51                push rcx
000001C9  E574              in eax,0x74
000001CB  64                fs
000001CC  06                db 0x06
000001CD  0000              add [rax],al
000001CF  0000              add [rax],al
000001D1  0000              add [rax],al
000001D3  0000              add [rax],al
000001D5  0000              add [rax],al
000001D7  0000              add [rax],al
000001D9  0000              add [rax],al
000001DB  0000              add [rax],al
000001DD  0000              add [rax],al
000001DF  0000              add [rax],al
000001E1  0000              add [rax],al
000001E3  0000              add [rax],al
000001E5  0000              add [rax],al
000001E7  0000              add [rax],al
000001E9  0000              add [rax],al
000001EB  0000              add [rax],al
000001ED  0000              add [rax],al
000001EF  0000              add [rax],al
000001F1  0000              add [rax],al
000001F3  0000              add [rax],al
000001F5  0000              add [rax],al
000001F7  0010              add [rax],dl
000001F9  0000              add [rax],al
000001FB  0000              add [rax],al
000001FD  0000              add [rax],al
000001FF  0052E5            add [rdx-0x1b],dl
00000202  7464              jz 0x268
00000204  0400              add al,0x0
00000206  0000              add [rax],al
00000208  B80D000000        mov eax,0xd
0000020D  0000              add [rax],al
0000020F  00B80D200000      add [rax+0x200d],bh
00000215  0000              add [rax],al
00000217  00B80D200000      add [rax+0x200d],bh
0000021D  0000              add [rax],al
0000021F  004802            add [rax+0x2],cl
00000222  0000              add [rax],al
00000224  0000              add [rax],al
00000226  0000              add [rax],al
00000228  480200            o64 add al,[rax]
0000022B  0000              add [rax],al
0000022D  0000              add [rax],al
0000022F  0001              add [rcx],al
00000231  0000              add [rax],al
00000233  0000              add [rax],al
00000235  0000              add [rax],al
00000237  002F              add [rdi],ch
00000239  6C                insb
0000023A  696236342F6C64    imul esp,[rdx+0x36],dword 0x646c2f34
00000241  2D6C696E75        sub eax,0x756e696c
00000246  782D              js 0x275
00000248  7838              js 0x282
0000024A  362D36342E73      ss sub eax,0x732e3436
00000250  6F                outsd
00000251  2E3200            xor al,[cs:rax]
00000254  0400              add al,0x0
00000256  0000              add [rax],al
00000258  1000              adc [rax],al
0000025A  0000              add [rax],al
0000025C  0100              add [rax],eax
0000025E  0000              add [rax],al
00000260  47                rex.rxb
00000261  4E55              push rbp
00000263  0000              add [rax],al
00000265  0000              add [rax],al
00000267  0003              add [rbx],al
00000269  0000              add [rax],al
0000026B  0002              add [rdx],al
0000026D  0000              add [rax],al
0000026F  0000              add [rax],al
00000271  0000              add [rax],al
00000273  000400            add [rax+rax],al
00000276  0000              add [rax],al
00000278  1400              adc al,0x0
0000027A  0000              add [rax],al
0000027C  0300              add eax,[rax]
0000027E  0000              add [rax],al
00000280  47                rex.rxb
00000281  4E55              push rbp
00000283  00C4              add ah,al
00000285  234247            and eax,[rdx+0x47]
00000288  D0D2              rcl dl,1
0000028A  4B880E            o64 mov [r14],cl
0000028D  07                db 0x07
0000028E  DC37              fdiv qword [rdi]
00000290  45C7C0E440A96C    mov r8d,0x6ca940e4
00000297  F5                cmc
00000298  0100              add [rax],eax
0000029A  0000              add [rax],al
0000029C  0100              add [rax],eax
0000029E  0000              add [rax],al
000002A0  0100              add [rax],eax
000002A2  0000              add [rax],al
000002A4  0000              add [rax],al
000002A6  0000              add [rax],al
000002A8  0000              add [rax],al
000002AA  0000              add [rax],al
000002AC  0000              add [rax],al
000002AE  0000              add [rax],al
000002B0  0000              add [rax],al
000002B2  0000              add [rax],al
000002B4  0000              add [rax],al
000002B6  0000              add [rax],al
000002B8  0000              add [rax],al
000002BA  0000              add [rax],al
000002BC  0000              add [rax],al
000002BE  0000              add [rax],al
000002C0  0000              add [rax],al
000002C2  0000              add [rax],al
000002C4  0000              add [rax],al
000002C6  0000              add [rax],al
000002C8  0000              add [rax],al
000002CA  0000              add [rax],al
000002CC  0000              add [rax],al
000002CE  0000              add [rax],al
000002D0  3F                db 0x3f
000002D1  0000              add [rax],al
000002D3  0020              add [rax],ah
000002D5  0000              add [rax],al
000002D7  0000              add [rax],al
000002D9  0000              add [rax],al
000002DB  0000              add [rax],al
000002DD  0000              add [rax],al
000002DF  0000              add [rax],al
000002E1  0000              add [rax],al
000002E3  0000              add [rax],al
000002E5  0000              add [rax],al
000002E7  000B              add [rbx],cl
000002E9  0000              add [rax],al
000002EB  0012              add [rdx],dl
000002ED  0000              add [rax],al
000002EF  0000              add [rax],al
000002F1  0000              add [rax],al
000002F3  0000              add [rax],al
000002F5  0000              add [rax],al
000002F7  0000              add [rax],al
000002F9  0000              add [rax],al
000002FB  0000              add [rax],al
000002FD  0000              add [rax],al
000002FF  0021              add [rcx],ah
00000301  0000              add [rax],al
00000303  0012              add [rdx],dl
00000305  0000              add [rax],al
00000307  0000              add [rax],al
00000309  0000              add [rax],al
0000030B  0000              add [rax],al
0000030D  0000              add [rax],al
0000030F  0000              add [rax],al
00000311  0000              add [rax],al
00000313  0000              add [rax],al
00000315  0000              add [rax],al
00000317  005B00            add [rbx+0x0],bl
0000031A  0000              add [rax],al
0000031C  2000              and [rax],al
0000031E  0000              add [rax],al
00000320  0000              add [rax],al
00000322  0000              add [rax],al
00000324  0000              add [rax],al
00000326  0000              add [rax],al
00000328  0000              add [rax],al
0000032A  0000              add [rax],al
0000032C  0000              add [rax],al
0000032E  0000              add [rax],al
00000330  6A00              push byte +0x0
00000332  0000              add [rax],al
00000334  2000              and [rax],al
00000336  0000              add [rax],al
00000338  0000              add [rax],al
0000033A  0000              add [rax],al
0000033C  0000              add [rax],al
0000033E  0000              add [rax],al
00000340  0000              add [rax],al
00000342  0000              add [rax],al
00000344  0000              add [rax],al
00000346  0000              add [rax],al
00000348  1200              adc al,[rax]
0000034A  0000              add [rax],al
0000034C  2200              and al,[rax]
0000034E  0000              add [rax],al
00000350  0000              add [rax],al
00000352  0000              add [rax],al
00000354  0000              add [rax],al
00000356  0000              add [rax],al
00000358  0000              add [rax],al
0000035A  0000              add [rax],al
0000035C  0000              add [rax],al
0000035E  0000              add [rax],al
00000360  006C6962          add [rcx+rbp*2+0x62],ch
00000364  63                db 0x63
00000365  2E736F            cs jnc 0x3d7
00000368  2E36007072        add [ss:rax+0x72],dh
0000036D  696E7466005F5F    imul ebp,[rsi+0x74],dword 0x5f5f0066
00000374  63                db 0x63
00000375  7861              js 0x3d8
00000377  5F                pop rdi
00000378  66696E616C69      imul bp,[rsi+0x61],word 0x696c
0000037E  7A65              jpe 0x3e5
00000380  005F5F            add [rdi+0x5f],bl
00000383  6C                insb
00000384  6962635F737461    imul esp,[rdx+0x63],dword 0x6174735f
0000038B  7274              jc 0x401
0000038D  5F                pop rdi
0000038E  6D                insd
0000038F  61                db 0x61
00000390  696E00474C4942    imul ebp,[rsi+0x0],dword 0x42494c47
00000397  435F              pop r15
00000399  322E              xor ch,[rsi]
0000039B  322E              xor ch,[rsi]
0000039D  35005F4954        xor eax,0x54495f00
000003A2  4D5F              pop r15
000003A4  64657265          gs jc 0x40d
000003A8  676973746572544D  imul esi,[ebx+0x74],dword 0x4d547265
000003B0  436C              insb
000003B2  6F                outsd
000003B3  6E                outsb
000003B4  6554              gs push rsp
000003B6  61                db 0x61
000003B7  62                db 0x62
000003B8  6C                insb
000003B9  65005F5F          add [gs:rdi+0x5f],bl
000003BD  676D              a32 insd
000003BF  6F                outsd
000003C0  6E                outsb
000003C1  5F                pop rdi
000003C2  7374              jnc 0x438
000003C4  61                db 0x61
000003C5  7274              jc 0x43b
000003C7  5F                pop rdi
000003C8  5F                pop rdi
000003C9  005F49            add [rdi+0x49],bl
000003CC  54                push rsp
000003CD  4D5F              pop r15
000003CF  7265              jc 0x436
000003D1  676973746572544D  imul esi,[ebx+0x74],dword 0x4d547265
000003D9  436C              insb
000003DB  6F                outsd
000003DC  6E                outsb
000003DD  6554              gs push rsp
000003DF  61                db 0x61
000003E0  62                db 0x62
000003E1  6C                insb
000003E2  650000            add [gs:rax],al
000003E5  0000              add [rax],al
000003E7  0002              add [rdx],al
000003E9  0002              add [rdx],al
000003EB  0000              add [rax],al
000003ED  0000              add [rax],al
000003EF  0002              add [rdx],al
000003F1  0000              add [rax],al
000003F3  0000              add [rax],al
000003F5  0000              add [rax],al
000003F7  0001              add [rcx],al
000003F9  0001              add [rcx],al
000003FB  0001              add [rcx],al
000003FD  0000              add [rax],al
000003FF  0010              add [rax],dl
00000401  0000              add [rax],al
00000403  0000              add [rax],al
00000405  0000              add [rax],al
00000407  00751A            add [rbp+0x1a],dh
0000040A  690900000200      imul ecx,[rcx],dword 0x20000
00000410  3300              xor eax,[rax]
00000412  0000              add [rax],al
00000414  0000              add [rax],al
00000416  0000              add [rax],al
00000418  B80D200000        mov eax,0x200d
0000041D  0000              add [rax],al
0000041F  0008              add [rax],cl
00000421  0000              add [rax],al
00000423  0000              add [rax],al
00000425  0000              add [rax],al
00000427  004006            add [rax+0x6],al
0000042A  0000              add [rax],al
0000042C  0000              add [rax],al
0000042E  0000              add [rax],al
00000430  C00D2000000000    ror byte [rel 0x457],byte 0x0
00000437  0008              add [rax],cl
00000439  0000              add [rax],al
0000043B  0000              add [rax],al
0000043D  0000              add [rax],al
0000043F  0000              add [rax],al
00000441  06                db 0x06
00000442  0000              add [rax],al
00000444  0000              add [rax],al
00000446  0000              add [rax],al
00000448  0810              or [rax],dl
0000044A  2000              and [rax],al
0000044C  0000              add [rax],al
0000044E  0000              add [rax],al
00000450  0800              or [rax],al
00000452  0000              add [rax],al
00000454  0000              add [rax],al
00000456  0000              add [rax],al
00000458  0810              or [rax],dl
0000045A  2000              and [rax],al
0000045C  0000              add [rax],al
0000045E  0000              add [rax],al
00000460  D80F              fmul dword [rdi]
00000462  2000              and [rax],al
00000464  0000              add [rax],al
00000466  0000              add [rax],al
00000468  06                db 0x06
00000469  0000              add [rax],al
0000046B  0001              add [rcx],al
0000046D  0000              add [rax],al
0000046F  0000              add [rax],al
00000471  0000              add [rax],al
00000473  0000              add [rax],al
00000475  0000              add [rax],al
00000477  00E0              add al,ah
00000479  0F                db 0x0f
0000047A  2000              and [rax],al
0000047C  0000              add [rax],al
0000047E  0000              add [rax],al
00000480  06                db 0x06
00000481  0000              add [rax],al
00000483  0003              add [rbx],al
00000485  0000              add [rax],al
00000487  0000              add [rax],al
00000489  0000              add [rax],al
0000048B  0000              add [rax],al
0000048D  0000              add [rax],al
0000048F  00E8              add al,ch
00000491  0F                db 0x0f
00000492  2000              and [rax],al
00000494  0000              add [rax],al
00000496  0000              add [rax],al
00000498  06                db 0x06
00000499  0000              add [rax],al
0000049B  000400            add [rax+rax],al
0000049E  0000              add [rax],al
000004A0  0000              add [rax],al
000004A2  0000              add [rax],al
000004A4  0000              add [rax],al
000004A6  0000              add [rax],al
000004A8  F0                lock
000004A9  0F                db 0x0f
000004AA  2000              and [rax],al
000004AC  0000              add [rax],al
000004AE  0000              add [rax],al
000004B0  06                db 0x06
000004B1  0000              add [rax],al
000004B3  000500000000      add [rel 0x4b9],al
000004B9  0000              add [rax],al
000004BB  0000              add [rax],al
000004BD  0000              add [rax],al
000004BF  00F8              add al,bh
000004C1  0F                db 0x0f
000004C2  2000              and [rax],al
000004C4  0000              add [rax],al
000004C6  0000              add [rax],al
000004C8  06                db 0x06
000004C9  0000              add [rax],al
000004CB  0006              add [rsi],al
000004CD  0000              add [rax],al
000004CF  0000              add [rax],al
000004D1  0000              add [rax],al
000004D3  0000              add [rax],al
000004D5  0000              add [rax],al
000004D7  00D0              add al,dl
000004D9  0F                db 0x0f
000004DA  2000              and [rax],al
000004DC  0000              add [rax],al
000004DE  0000              add [rax],al
000004E0  07                db 0x07
000004E1  0000              add [rax],al
000004E3  0002              add [rdx],al
000004E5  0000              add [rax],al
000004E7  0000              add [rax],al
000004E9  0000              add [rax],al
000004EB  0000              add [rax],al
000004ED  0000              add [rax],al
000004EF  004883            add [rax-0x7d],cl
000004F2  EC                in al,dx
000004F3  08488B            or [rax-0x75],cl
000004F6  05ED0A2000        add eax,0x200aed
000004FB  4885C0            test rax,rax
000004FE  7402              jz 0x502
00000500  FFD0              call rax
00000502  4883C408          add rsp,byte +0x8
00000506  C3                ret
00000507  0000              add [rax],al
00000509  0000              add [rax],al
0000050B  0000              add [rax],al
0000050D  0000              add [rax],al
0000050F  00FF              add bh,bh
00000511  35AA0A2000        xor eax,0x200aaa
00000516  FF25AC0A2000      jmp [rel 0x200fc8]
0000051C  0F1F4000          nop dword [rax+0x0]
00000520  FF25AA0A2000      jmp [rel 0x200fd0]
00000526  6800000000        push qword 0x0
0000052B  E9E0FFFFFF        jmp 0x510
00000530  FF25C20A2000      jmp [rel 0x200ff8]
00000536  6690              xchg ax,ax
00000538  0000              add [rax],al
0000053A  0000              add [rax],al
0000053C  0000              add [rax],al
0000053E  0000              add [rax],al
00000540  31ED              xor ebp,ebp
00000542  4989D1            mov r9,rdx
00000545  5E                pop rsi
00000546  4889E2            mov rdx,rsp
00000549  4883E4F0          and rsp,byte -0x10
0000054D  50                push rax
0000054E  54                push rsp
0000054F  4C8D05DA010000    lea r8,[rel 0x730]
00000556  488D0D63010000    lea rcx,[rel 0x6c0]
0000055D  488D3D05010000    lea rdi,[rel 0x669]
00000564  FF15760A2000      call [rel 0x200fe0]
0000056A  F4                hlt
0000056B  0F1F440000        nop dword [rax+rax+0x0]
00000570  488D3D990A2000    lea rdi,[rel 0x201010]
00000577  55                push rbp
00000578  488D05910A2000    lea rax,[rel 0x201010]
0000057F  4839F8            cmp rax,rdi
00000582  4889E5            mov rbp,rsp
00000585  7419              jz 0x5a0
00000587  488B054A0A2000    mov rax,[rel 0x200fd8]
0000058E  4885C0            test rax,rax
00000591  740D              jz 0x5a0
00000593  5D                pop rbp
00000594  FFE0              jmp rax
00000596  662E0F1F84000000  nop word [cs:rax+rax+0x0]
         -0000
000005A0  5D                pop rbp
000005A1  C3                ret
000005A2  0F1F4000          nop dword [rax+0x0]
000005A6  662E0F1F84000000  nop word [cs:rax+rax+0x0]
         -0000
000005B0  488D3D590A2000    lea rdi,[rel 0x201010]
000005B7  488D35520A2000    lea rsi,[rel 0x201010]
000005BE  55                push rbp
000005BF  4829FE            sub rsi,rdi
000005C2  4889E5            mov rbp,rsp
000005C5  48C1FE03          sar rsi,byte 0x3
000005C9  4889F0            mov rax,rsi
000005CC  48C1E83F          shr rax,byte 0x3f
000005D0  4801C6            add rsi,rax
000005D3  48D1FE            sar rsi,1
000005D6  7418              jz 0x5f0
000005D8  488B05110A2000    mov rax,[rel 0x200ff0]
000005DF  4885C0            test rax,rax
000005E2  740C              jz 0x5f0
000005E4  5D                pop rbp
000005E5  FFE0              jmp rax
000005E7  660F1F8400000000  nop word [rax+rax+0x0]
         -00
000005F0  5D                pop rbp
000005F1  C3                ret
000005F2  0F1F4000          nop dword [rax+0x0]
000005F6  662E0F1F84000000  nop word [cs:rax+rax+0x0]
         -0000
00000600  803D090A200000    cmp byte [rel 0x201010],0x0
00000607  752F              jnz 0x638
00000609  48833DE709200000  cmp qword [rel 0x200ff8],byte +0x0
00000611  55                push rbp
00000612  4889E5            mov rbp,rsp
00000615  740C              jz 0x623
00000617  488B3DEA092000    mov rdi,[rel 0x201008]
0000061E  E80DFFFFFF        call 0x530
00000623  E848FFFFFF        call 0x570
00000628  C605E109200001    mov byte [rel 0x201010],0x1
0000062F  5D                pop rbp
00000630  C3                ret
00000631  0F1F8000000000    nop dword [rax+0x0]
00000638  F3C3              rep ret
0000063A  660F1F440000      nop word [rax+rax+0x0]
00000640  55                push rbp
00000641  4889E5            mov rbp,rsp
00000644  5D                pop rbp
00000645  E966FFFFFF        jmp 0x5b0
0000064A  55                push rbp
0000064B  4889E5            mov rbp,rsp
0000064E  897DEC            mov [rbp-0x14],edi
00000651  8975E8            mov [rbp-0x18],esi
00000654  C745FC00000000    mov dword [rbp-0x4],0x0
0000065B  8B45EC            mov eax,[rbp-0x14]
0000065E  2345E8            and eax,[rbp-0x18]
00000661  8945FC            mov [rbp-0x4],eax
00000664  8B45FC            mov eax,[rbp-0x4]
00000667  5D                pop rbp
00000668  C3                ret
00000669  55                push rbp
0000066A  4889E5            mov rbp,rsp
0000066D  4883EC10          sub rsp,byte +0x10
00000671  488D3DCC000000    lea rdi,[rel 0x744]
00000678  B800000000        mov eax,0x0
0000067D  E89EFEFFFF        call 0x520
00000682  BE0C000000        mov esi,0xc
00000687  BF0A000000        mov edi,0xa
0000068C  E8B9FFFFFF        call 0x64a
00000691  8945FC            mov [rbp-0x4],eax
00000694  8B45FC            mov eax,[rbp-0x4]
00000697  89C6              mov esi,eax
00000699  488D3DAB000000    lea rdi,[rel 0x74b]
000006A0  B800000000        mov eax,0x0
000006A5  E876FEFFFF        call 0x520
000006AA  B800000000        mov eax,0x0
000006AF  C9                leave
000006B0  C3                ret
000006B1  662E0F1F84000000  nop word [cs:rax+rax+0x0]
         -0000
000006BB  0F1F440000        nop dword [rax+rax+0x0]
000006C0  4157              push r15
000006C2  4156              push r14
000006C4  4989D7            mov r15,rdx
000006C7  4155              push r13
000006C9  4154              push r12
000006CB  4C8D25E6062000    lea r12,[rel 0x200db8]
000006D2  55                push rbp
000006D3  488D2DE6062000    lea rbp,[rel 0x200dc0]
000006DA  53                push rbx
000006DB  4189FD            mov r13d,edi
000006DE  4989F6            mov r14,rsi
000006E1  4C29E5            sub rbp,r12
000006E4  4883EC08          sub rsp,byte +0x8
000006E8  48C1FD03          sar rbp,byte 0x3
000006EC  E8FFFDFFFF        call 0x4f0
000006F1  4885ED            test rbp,rbp
000006F4  7420              jz 0x716
000006F6  31DB              xor ebx,ebx
000006F8  0F1F840000000000  nop dword [rax+rax+0x0]
00000700  4C89FA            mov rdx,r15
00000703  4C89F6            mov rsi,r14
00000706  4489EF            mov edi,r13d
00000709  41FF14DC          call [r12+rbx*8]
0000070D  4883C301          add rbx,byte +0x1
00000711  4839DD            cmp rbp,rbx
00000714  75EA              jnz 0x700
00000716  4883C408          add rsp,byte +0x8
0000071A  5B                pop rbx
0000071B  5D                pop rbp
0000071C  415C              pop r12
0000071E  415D              pop r13
00000720  415E              pop r14
00000722  415F              pop r15
00000724  C3                ret
00000725  90                nop
00000726  662E0F1F84000000  nop word [cs:rax+rax+0x0]
         -0000
00000730  F3C3              rep ret
00000732  0000              add [rax],al
00000734  4883EC08          sub rsp,byte +0x8
00000738  4883C408          add rsp,byte +0x8
0000073C  C3                ret
0000073D  0000              add [rax],al
0000073F  0001              add [rcx],al
00000741  0002              add [rdx],al
00000743  006F69            add [rdi+0x69],ch
00000746  206861            and [rax+0x61],ch
00000749  6900416E6465      imul eax,[rax],dword 0x65646e41
0000074F  64206973          and [fs:rcx+0x73],ch
00000753  202564000001      and [rel 0x10007bd],ah
00000759  1B03              sbb eax,[rbx]
0000075B  3B440000          cmp eax,[rax+rax+0x0]
0000075F  0007              add [rdi],al
00000761  0000              add [rax],al
00000763  00B8FDFFFF90      add [rax-0x6f000003],bh
00000769  0000              add [rax],al
0000076B  00D8              add al,bl
0000076D  FD                std
0000076E  FF                db 0xff
0000076F  FF                db 0xff
00000770  B8000000E8        mov eax,0xe8000000
00000775  FD                std
00000776  FF                db 0xff
00000777  FF6000            jmp [rax+0x0]
0000077A  0000              add [rax],al
0000077C  F2                repne
0000077D  FE                db 0xfe
0000077E  FF                db 0xff
0000077F  FFD0              call rax
00000781  0000              add [rax],al
00000783  0011              add [rcx],dl
00000785  FF                db 0xff
00000786  FF                db 0xff
00000787  FFF0              push rax
00000789  0000              add [rax],al
0000078B  0068FF            add [rax-0x1],ch
0000078E  FF                db 0xff
0000078F  FF10              call [rax]
00000791  0100              add [rax],eax
00000793  00D8              add al,bl
00000795  FF                db 0xff
00000796  FF                db 0xff
00000797  FF5801            call dword far [rax+0x1]
0000079A  0000              add [rax],al
0000079C  0000              add [rax],al
0000079E  0000              add [rax],al
000007A0  1400              adc al,0x0
000007A2  0000              add [rax],al
000007A4  0000              add [rax],al
000007A6  0000              add [rax],al
000007A8  017A52            add [rdx+0x52],edi
000007AB  0001              add [rcx],al
000007AD  7810              js 0x7bf
000007AF  011B              add [rbx],ebx
000007B1  0C07              or al,0x7
000007B3  089001071014      or [rax+0x14100701],dl
000007B9  0000              add [rax],al
000007BB  001C00            add [rax+rax],bl
000007BE  0000              add [rax],al
000007C0  80FDFF            cmp ch,0xff
000007C3  FF2B              jmp dword far [rbx]
000007C5  0000              add [rax],al
000007C7  0000              add [rax],al
000007C9  0000              add [rax],al
000007CB  0000              add [rax],al
000007CD  0000              add [rax],al
000007CF  001400            add [rax+rax],dl
000007D2  0000              add [rax],al
000007D4  0000              add [rax],al
000007D6  0000              add [rax],al
000007D8  017A52            add [rdx+0x52],edi
000007DB  0001              add [rcx],al
000007DD  7810              js 0x7ef
000007DF  011B              add [rbx],ebx
000007E1  0C07              or al,0x7
000007E3  089001000024      or [rax+0x24000001],dl
000007E9  0000              add [rax],al
000007EB  001C00            add [rax+rax],bl
000007EE  0000              add [rax],al
000007F0  20FD              and ch,bh
000007F2  FF                db 0xff
000007F3  FF20              jmp [rax]
000007F5  0000              add [rax],al
000007F7  0000              add [rax],al
000007F9  0E                db 0x0e
000007FA  10460E            adc [rsi+0xe],al
000007FD  184A0F            sbb [rdx+0xf],cl
00000800  0B7708            or esi,[rdi+0x8]
00000803  80003F            add byte [rax],0x3f
00000806  1A3B              sbb bh,[rbx]
00000808  2A33              sub dh,[rbx]
0000080A  2422              and al,0x22
0000080C  0000              add [rax],al
0000080E  0000              add [rax],al
00000810  1400              adc al,0x0
00000812  0000              add [rax],al
00000814  440000            add [rax],r8b
00000817  0018              add [rax],bl
00000819  FD                std
0000081A  FF                db 0xff
0000081B  FF08              dec dword [rax]
0000081D  0000              add [rax],al
0000081F  0000              add [rax],al
00000821  0000              add [rax],al
00000823  0000              add [rax],al
00000825  0000              add [rax],al
00000827  001C00            add [rax+rax],bl
0000082A  0000              add [rax],al
0000082C  5C                pop rsp
0000082D  0000              add [rax],al
0000082F  001A              add [rdx],bl
00000831  FE                db 0xfe
00000832  FF                db 0xff
00000833  FF1F              call dword far [rdi]
00000835  0000              add [rax],al
00000837  0000              add [rax],al
00000839  41                rex.b
0000083A  0E                db 0x0e
0000083B  108602430D06      adc [rsi+0x60d4302],al
00000841  5A                pop rdx
00000842  0C07              or al,0x7
00000844  0800              or [rax],al
00000846  0000              add [rax],al
00000848  1C00              sbb al,0x0
0000084A  0000              add [rax],al
0000084C  7C00              jl 0x84e
0000084E  0000              add [rax],al
00000850  19FE              sbb esi,edi
00000852  FF                db 0xff
00000853  FF4800            dec dword [rax+0x0]
00000856  0000              add [rax],al
00000858  00410E            add [rcx+0xe],al
0000085B  108602430D06      adc [rsi+0x60d4302],al
00000861  02430C            add al,[rbx+0xc]
00000864  07                db 0x07
00000865  0800              or [rax],al
00000867  00440000          add [rax+rax+0x0],al
0000086B  009C00000050FE    add [rax+rax-0x1b00000],bl
00000872  FF                db 0xff
00000873  FF6500            jmp [rbp+0x0]
00000876  0000              add [rax],al
00000878  00420E            add [rdx+0xe],al
0000087B  108F02420E18      adc [rdi+0x180e4202],cl
00000881  8E03              mov es,[rbx]
00000883  45                rex.rb
00000884  0E                db 0x0e
00000885  208D04420E28      and [rbp+0x280e4204],cl
0000088B  8C05480E3086      mov [rel 0xffffffff863016d9],es
00000891  06                db 0x06
00000892  48                rex.w
00000893  0E                db 0x0e
00000894  3883074D0E40      cmp [rbx+0x400e4d07],al
0000089A  720E              jc 0x8aa
0000089C  38410E            cmp [rcx+0xe],al
0000089F  30410E            xor [rcx+0xe],al
000008A2  28420E            sub [rdx+0xe],al
000008A5  20420E            and [rdx+0xe],al
000008A8  18420E            sbb [rdx+0xe],al
000008AB  10420E            adc [rdx+0xe],al
000008AE  0800              or [rax],al
000008B0  1000              adc [rax],al
000008B2  0000              add [rax],al
000008B4  E400              in al,0x0
000008B6  0000              add [rax],al
000008B8  78FE              js 0x8b8
000008BA  FF                db 0xff
000008BB  FF02              inc dword [rdx]
000008BD  0000              add [rax],al
000008BF  0000              add [rax],al
000008C1  0000              add [rax],al
000008C3  0000              add [rax],al
000008C5  0000              add [rax],al
000008C7  0000              add [rax],al
000008C9  0000              add [rax],al
000008CB  0000              add [rax],al
000008CD  0000              add [rax],al
000008CF  0000              add [rax],al
000008D1  0000              add [rax],al
000008D3  0000              add [rax],al
000008D5  0000              add [rax],al
000008D7  0000              add [rax],al
000008D9  0000              add [rax],al
000008DB  0000              add [rax],al
000008DD  0000              add [rax],al
000008DF  0000              add [rax],al
000008E1  0000              add [rax],al
000008E3  0000              add [rax],al
000008E5  0000              add [rax],al
000008E7  0000              add [rax],al
000008E9  0000              add [rax],al
000008EB  0000              add [rax],al
000008ED  0000              add [rax],al
000008EF  0000              add [rax],al
000008F1  0000              add [rax],al
000008F3  0000              add [rax],al
000008F5  0000              add [rax],al
000008F7  0000              add [rax],al
000008F9  0000              add [rax],al
000008FB  0000              add [rax],al
000008FD  0000              add [rax],al
000008FF  0000              add [rax],al
00000901  0000              add [rax],al
00000903  0000              add [rax],al
00000905  0000              add [rax],al
00000907  0000              add [rax],al
00000909  0000              add [rax],al
0000090B  0000              add [rax],al
0000090D  0000              add [rax],al
0000090F  0000              add [rax],al
00000911  0000              add [rax],al
00000913  0000              add [rax],al
00000915  0000              add [rax],al
00000917  0000              add [rax],al
00000919  0000              add [rax],al
0000091B  0000              add [rax],al
0000091D  0000              add [rax],al
0000091F  0000              add [rax],al
00000921  0000              add [rax],al
00000923  0000              add [rax],al
00000925  0000              add [rax],al
00000927  0000              add [rax],al
00000929  0000              add [rax],al
0000092B  0000              add [rax],al
0000092D  0000              add [rax],al
0000092F  0000              add [rax],al
00000931  0000              add [rax],al
00000933  0000              add [rax],al
00000935  0000              add [rax],al
00000937  0000              add [rax],al
00000939  0000              add [rax],al
0000093B  0000              add [rax],al
0000093D  0000              add [rax],al
0000093F  0000              add [rax],al
00000941  0000              add [rax],al
00000943  0000              add [rax],al
00000945  0000              add [rax],al
00000947  0000              add [rax],al
00000949  0000              add [rax],al
0000094B  0000              add [rax],al
0000094D  0000              add [rax],al
0000094F  0000              add [rax],al
00000951  0000              add [rax],al
00000953  0000              add [rax],al
00000955  0000              add [rax],al
00000957  0000              add [rax],al
00000959  0000              add [rax],al
0000095B  0000              add [rax],al
0000095D  0000              add [rax],al
0000095F  0000              add [rax],al
00000961  0000              add [rax],al
00000963  0000              add [rax],al
00000965  0000              add [rax],al
00000967  0000              add [rax],al
00000969  0000              add [rax],al
0000096B  0000              add [rax],al
0000096D  0000              add [rax],al
0000096F  0000              add [rax],al
00000971  0000              add [rax],al
00000973  0000              add [rax],al
00000975  0000              add [rax],al
00000977  0000              add [rax],al
00000979  0000              add [rax],al
0000097B  0000              add [rax],al
0000097D  0000              add [rax],al
0000097F  0000              add [rax],al
00000981  0000              add [rax],al
00000983  0000              add [rax],al
00000985  0000              add [rax],al
00000987  0000              add [rax],al
00000989  0000              add [rax],al
0000098B  0000              add [rax],al
0000098D  0000              add [rax],al
0000098F  0000              add [rax],al
00000991  0000              add [rax],al
00000993  0000              add [rax],al
00000995  0000              add [rax],al
00000997  0000              add [rax],al
00000999  0000              add [rax],al
0000099B  0000              add [rax],al
0000099D  0000              add [rax],al
0000099F  0000              add [rax],al
000009A1  0000              add [rax],al
000009A3  0000              add [rax],al
000009A5  0000              add [rax],al
000009A7  0000              add [rax],al
000009A9  0000              add [rax],al
000009AB  0000              add [rax],al
000009AD  0000              add [rax],al
000009AF  0000              add [rax],al
000009B1  0000              add [rax],al
000009B3  0000              add [rax],al
000009B5  0000              add [rax],al
000009B7  0000              add [rax],al
000009B9  0000              add [rax],al
000009BB  0000              add [rax],al
000009BD  0000              add [rax],al
000009BF  0000              add [rax],al
000009C1  0000              add [rax],al
000009C3  0000              add [rax],al
000009C5  0000              add [rax],al
000009C7  0000              add [rax],al
000009C9  0000              add [rax],al
000009CB  0000              add [rax],al
000009CD  0000              add [rax],al
000009CF  0000              add [rax],al
000009D1  0000              add [rax],al
000009D3  0000              add [rax],al
000009D5  0000              add [rax],al
000009D7  0000              add [rax],al
000009D9  0000              add [rax],al
000009DB  0000              add [rax],al
000009DD  0000              add [rax],al
000009DF  0000              add [rax],al
000009E1  0000              add [rax],al
000009E3  0000              add [rax],al
000009E5  0000              add [rax],al
000009E7  0000              add [rax],al
000009E9  0000              add [rax],al
000009EB  0000              add [rax],al
000009ED  0000              add [rax],al
000009EF  0000              add [rax],al
000009F1  0000              add [rax],al
000009F3  0000              add [rax],al
000009F5  0000              add [rax],al
000009F7  0000              add [rax],al
000009F9  0000              add [rax],al
000009FB  0000              add [rax],al
000009FD  0000              add [rax],al
000009FF  0000              add [rax],al
00000A01  0000              add [rax],al
00000A03  0000              add [rax],al
00000A05  0000              add [rax],al
00000A07  0000              add [rax],al
00000A09  0000              add [rax],al
00000A0B  0000              add [rax],al
00000A0D  0000              add [rax],al
00000A0F  0000              add [rax],al
00000A11  0000              add [rax],al
00000A13  0000              add [rax],al
00000A15  0000              add [rax],al
00000A17  0000              add [rax],al
00000A19  0000              add [rax],al
00000A1B  0000              add [rax],al
00000A1D  0000              add [rax],al
00000A1F  0000              add [rax],al
00000A21  0000              add [rax],al
00000A23  0000              add [rax],al
00000A25  0000              add [rax],al
00000A27  0000              add [rax],al
00000A29  0000              add [rax],al
00000A2B  0000              add [rax],al
00000A2D  0000              add [rax],al
00000A2F  0000              add [rax],al
00000A31  0000              add [rax],al
00000A33  0000              add [rax],al
00000A35  0000              add [rax],al
00000A37  0000              add [rax],al
00000A39  0000              add [rax],al
00000A3B  0000              add [rax],al
00000A3D  0000              add [rax],al
00000A3F  0000              add [rax],al
00000A41  0000              add [rax],al
00000A43  0000              add [rax],al
00000A45  0000              add [rax],al
00000A47  0000              add [rax],al
00000A49  0000              add [rax],al
00000A4B  0000              add [rax],al
00000A4D  0000              add [rax],al
00000A4F  0000              add [rax],al
00000A51  0000              add [rax],al
00000A53  0000              add [rax],al
00000A55  0000              add [rax],al
00000A57  0000              add [rax],al
00000A59  0000              add [rax],al
00000A5B  0000              add [rax],al
00000A5D  0000              add [rax],al
00000A5F  0000              add [rax],al
00000A61  0000              add [rax],al
00000A63  0000              add [rax],al
00000A65  0000              add [rax],al
00000A67  0000              add [rax],al
00000A69  0000              add [rax],al
00000A6B  0000              add [rax],al
00000A6D  0000              add [rax],al
00000A6F  0000              add [rax],al
00000A71  0000              add [rax],al
00000A73  0000              add [rax],al
00000A75  0000              add [rax],al
00000A77  0000              add [rax],al
00000A79  0000              add [rax],al
00000A7B  0000              add [rax],al
00000A7D  0000              add [rax],al
00000A7F  0000              add [rax],al
00000A81  0000              add [rax],al
00000A83  0000              add [rax],al
00000A85  0000              add [rax],al
00000A87  0000              add [rax],al
00000A89  0000              add [rax],al
00000A8B  0000              add [rax],al
00000A8D  0000              add [rax],al
00000A8F  0000              add [rax],al
00000A91  0000              add [rax],al
00000A93  0000              add [rax],al
00000A95  0000              add [rax],al
00000A97  0000              add [rax],al
00000A99  0000              add [rax],al
00000A9B  0000              add [rax],al
00000A9D  0000              add [rax],al
00000A9F  0000              add [rax],al
00000AA1  0000              add [rax],al
00000AA3  0000              add [rax],al
00000AA5  0000              add [rax],al
00000AA7  0000              add [rax],al
00000AA9  0000              add [rax],al
00000AAB  0000              add [rax],al
00000AAD  0000              add [rax],al
00000AAF  0000              add [rax],al
00000AB1  0000              add [rax],al
00000AB3  0000              add [rax],al
00000AB5  0000              add [rax],al
00000AB7  0000              add [rax],al
00000AB9  0000              add [rax],al
00000ABB  0000              add [rax],al
00000ABD  0000              add [rax],al
00000ABF  0000              add [rax],al
00000AC1  0000              add [rax],al
00000AC3  0000              add [rax],al
00000AC5  0000              add [rax],al
00000AC7  0000              add [rax],al
00000AC9  0000              add [rax],al
00000ACB  0000              add [rax],al
00000ACD  0000              add [rax],al
00000ACF  0000              add [rax],al
00000AD1  0000              add [rax],al
00000AD3  0000              add [rax],al
00000AD5  0000              add [rax],al
00000AD7  0000              add [rax],al
00000AD9  0000              add [rax],al
00000ADB  0000              add [rax],al
00000ADD  0000              add [rax],al
00000ADF  0000              add [rax],al
00000AE1  0000              add [rax],al
00000AE3  0000              add [rax],al
00000AE5  0000              add [rax],al
00000AE7  0000              add [rax],al
00000AE9  0000              add [rax],al
00000AEB  0000              add [rax],al
00000AED  0000              add [rax],al
00000AEF  0000              add [rax],al
00000AF1  0000              add [rax],al
00000AF3  0000              add [rax],al
00000AF5  0000              add [rax],al
00000AF7  0000              add [rax],al
00000AF9  0000              add [rax],al
00000AFB  0000              add [rax],al
00000AFD  0000              add [rax],al
00000AFF  0000              add [rax],al
00000B01  0000              add [rax],al
00000B03  0000              add [rax],al
00000B05  0000              add [rax],al
00000B07  0000              add [rax],al
00000B09  0000              add [rax],al
00000B0B  0000              add [rax],al
00000B0D  0000              add [rax],al
00000B0F  0000              add [rax],al
00000B11  0000              add [rax],al
00000B13  0000              add [rax],al
00000B15  0000              add [rax],al
00000B17  0000              add [rax],al
00000B19  0000              add [rax],al
00000B1B  0000              add [rax],al
00000B1D  0000              add [rax],al
00000B1F  0000              add [rax],al
00000B21  0000              add [rax],al
00000B23  0000              add [rax],al
00000B25  0000              add [rax],al
00000B27  0000              add [rax],al
00000B29  0000              add [rax],al
00000B2B  0000              add [rax],al
00000B2D  0000              add [rax],al
00000B2F  0000              add [rax],al
00000B31  0000              add [rax],al
00000B33  0000              add [rax],al
00000B35  0000              add [rax],al
00000B37  0000              add [rax],al
00000B39  0000              add [rax],al
00000B3B  0000              add [rax],al
00000B3D  0000              add [rax],al
00000B3F  0000              add [rax],al
00000B41  0000              add [rax],al
00000B43  0000              add [rax],al
00000B45  0000              add [rax],al
00000B47  0000              add [rax],al
00000B49  0000              add [rax],al
00000B4B  0000              add [rax],al
00000B4D  0000              add [rax],al
00000B4F  0000              add [rax],al
00000B51  0000              add [rax],al
00000B53  0000              add [rax],al
00000B55  0000              add [rax],al
00000B57  0000              add [rax],al
00000B59  0000              add [rax],al
00000B5B  0000              add [rax],al
00000B5D  0000              add [rax],al
00000B5F  0000              add [rax],al
00000B61  0000              add [rax],al
00000B63  0000              add [rax],al
00000B65  0000              add [rax],al
00000B67  0000              add [rax],al
00000B69  0000              add [rax],al
00000B6B  0000              add [rax],al
00000B6D  0000              add [rax],al
00000B6F  0000              add [rax],al
00000B71  0000              add [rax],al
00000B73  0000              add [rax],al
00000B75  0000              add [rax],al
00000B77  0000              add [rax],al
00000B79  0000              add [rax],al
00000B7B  0000              add [rax],al
00000B7D  0000              add [rax],al
00000B7F  0000              add [rax],al
00000B81  0000              add [rax],al
00000B83  0000              add [rax],al
00000B85  0000              add [rax],al
00000B87  0000              add [rax],al
00000B89  0000              add [rax],al
00000B8B  0000              add [rax],al
00000B8D  0000              add [rax],al
00000B8F  0000              add [rax],al
00000B91  0000              add [rax],al
00000B93  0000              add [rax],al
00000B95  0000              add [rax],al
00000B97  0000              add [rax],al
00000B99  0000              add [rax],al
00000B9B  0000              add [rax],al
00000B9D  0000              add [rax],al
00000B9F  0000              add [rax],al
00000BA1  0000              add [rax],al
00000BA3  0000              add [rax],al
00000BA5  0000              add [rax],al
00000BA7  0000              add [rax],al
00000BA9  0000              add [rax],al
00000BAB  0000              add [rax],al
00000BAD  0000              add [rax],al
00000BAF  0000              add [rax],al
00000BB1  0000              add [rax],al
00000BB3  0000              add [rax],al
00000BB5  0000              add [rax],al
00000BB7  0000              add [rax],al
00000BB9  0000              add [rax],al
00000BBB  0000              add [rax],al
00000BBD  0000              add [rax],al
00000BBF  0000              add [rax],al
00000BC1  0000              add [rax],al
00000BC3  0000              add [rax],al
00000BC5  0000              add [rax],al
00000BC7  0000              add [rax],al
00000BC9  0000              add [rax],al
00000BCB  0000              add [rax],al
00000BCD  0000              add [rax],al
00000BCF  0000              add [rax],al
00000BD1  0000              add [rax],al
00000BD3  0000              add [rax],al
00000BD5  0000              add [rax],al
00000BD7  0000              add [rax],al
00000BD9  0000              add [rax],al
00000BDB  0000              add [rax],al
00000BDD  0000              add [rax],al
00000BDF  0000              add [rax],al
00000BE1  0000              add [rax],al
00000BE3  0000              add [rax],al
00000BE5  0000              add [rax],al
00000BE7  0000              add [rax],al
00000BE9  0000              add [rax],al
00000BEB  0000              add [rax],al
00000BED  0000              add [rax],al
00000BEF  0000              add [rax],al
00000BF1  0000              add [rax],al
00000BF3  0000              add [rax],al
00000BF5  0000              add [rax],al
00000BF7  0000              add [rax],al
00000BF9  0000              add [rax],al
00000BFB  0000              add [rax],al
00000BFD  0000              add [rax],al
00000BFF  0000              add [rax],al
00000C01  0000              add [rax],al
00000C03  0000              add [rax],al
00000C05  0000              add [rax],al
00000C07  0000              add [rax],al
00000C09  0000              add [rax],al
00000C0B  0000              add [rax],al
00000C0D  0000              add [rax],al
00000C0F  0000              add [rax],al
00000C11  0000              add [rax],al
00000C13  0000              add [rax],al
00000C15  0000              add [rax],al
00000C17  0000              add [rax],al
00000C19  0000              add [rax],al
00000C1B  0000              add [rax],al
00000C1D  0000              add [rax],al
00000C1F  0000              add [rax],al
00000C21  0000              add [rax],al
00000C23  0000              add [rax],al
00000C25  0000              add [rax],al
00000C27  0000              add [rax],al
00000C29  0000              add [rax],al
00000C2B  0000              add [rax],al
00000C2D  0000              add [rax],al
00000C2F  0000              add [rax],al
00000C31  0000              add [rax],al
00000C33  0000              add [rax],al
00000C35  0000              add [rax],al
00000C37  0000              add [rax],al
00000C39  0000              add [rax],al
00000C3B  0000              add [rax],al
00000C3D  0000              add [rax],al
00000C3F  0000              add [rax],al
00000C41  0000              add [rax],al
00000C43  0000              add [rax],al
00000C45  0000              add [rax],al
00000C47  0000              add [rax],al
00000C49  0000              add [rax],al
00000C4B  0000              add [rax],al
00000C4D  0000              add [rax],al
00000C4F  0000              add [rax],al
00000C51  0000              add [rax],al
00000C53  0000              add [rax],al
00000C55  0000              add [rax],al
00000C57  0000              add [rax],al
00000C59  0000              add [rax],al
00000C5B  0000              add [rax],al
00000C5D  0000              add [rax],al
00000C5F  0000              add [rax],al
00000C61  0000              add [rax],al
00000C63  0000              add [rax],al
00000C65  0000              add [rax],al
00000C67  0000              add [rax],al
00000C69  0000              add [rax],al
00000C6B  0000              add [rax],al
00000C6D  0000              add [rax],al
00000C6F  0000              add [rax],al
00000C71  0000              add [rax],al
00000C73  0000              add [rax],al
00000C75  0000              add [rax],al
00000C77  0000              add [rax],al
00000C79  0000              add [rax],al
00000C7B  0000              add [rax],al
00000C7D  0000              add [rax],al
00000C7F  0000              add [rax],al
00000C81  0000              add [rax],al
00000C83  0000              add [rax],al
00000C85  0000              add [rax],al
00000C87  0000              add [rax],al
00000C89  0000              add [rax],al
00000C8B  0000              add [rax],al
00000C8D  0000              add [rax],al
00000C8F  0000              add [rax],al
00000C91  0000              add [rax],al
00000C93  0000              add [rax],al
00000C95  0000              add [rax],al
00000C97  0000              add [rax],al
00000C99  0000              add [rax],al
00000C9B  0000              add [rax],al
00000C9D  0000              add [rax],al
00000C9F  0000              add [rax],al
00000CA1  0000              add [rax],al
00000CA3  0000              add [rax],al
00000CA5  0000              add [rax],al
00000CA7  0000              add [rax],al
00000CA9  0000              add [rax],al
00000CAB  0000              add [rax],al
00000CAD  0000              add [rax],al
00000CAF  0000              add [rax],al
00000CB1  0000              add [rax],al
00000CB3  0000              add [rax],al
00000CB5  0000              add [rax],al
00000CB7  0000              add [rax],al
00000CB9  0000              add [rax],al
00000CBB  0000              add [rax],al
00000CBD  0000              add [rax],al
00000CBF  0000              add [rax],al
00000CC1  0000              add [rax],al
00000CC3  0000              add [rax],al
00000CC5  0000              add [rax],al
00000CC7  0000              add [rax],al
00000CC9  0000              add [rax],al
00000CCB  0000              add [rax],al
00000CCD  0000              add [rax],al
00000CCF  0000              add [rax],al
00000CD1  0000              add [rax],al
00000CD3  0000              add [rax],al
00000CD5  0000              add [rax],al
00000CD7  0000              add [rax],al
00000CD9  0000              add [rax],al
00000CDB  0000              add [rax],al
00000CDD  0000              add [rax],al
00000CDF  0000              add [rax],al
00000CE1  0000              add [rax],al
00000CE3  0000              add [rax],al
00000CE5  0000              add [rax],al
00000CE7  0000              add [rax],al
00000CE9  0000              add [rax],al
00000CEB  0000              add [rax],al
00000CED  0000              add [rax],al
00000CEF  0000              add [rax],al
00000CF1  0000              add [rax],al
00000CF3  0000              add [rax],al
00000CF5  0000              add [rax],al
00000CF7  0000              add [rax],al
00000CF9  0000              add [rax],al
00000CFB  0000              add [rax],al
00000CFD  0000              add [rax],al
00000CFF  0000              add [rax],al
00000D01  0000              add [rax],al
00000D03  0000              add [rax],al
00000D05  0000              add [rax],al
00000D07  0000              add [rax],al
00000D09  0000              add [rax],al
00000D0B  0000              add [rax],al
00000D0D  0000              add [rax],al
00000D0F  0000              add [rax],al
00000D11  0000              add [rax],al
00000D13  0000              add [rax],al
00000D15  0000              add [rax],al
00000D17  0000              add [rax],al
00000D19  0000              add [rax],al
00000D1B  0000              add [rax],al
00000D1D  0000              add [rax],al
00000D1F  0000              add [rax],al
00000D21  0000              add [rax],al
00000D23  0000              add [rax],al
00000D25  0000              add [rax],al
00000D27  0000              add [rax],al
00000D29  0000              add [rax],al
00000D2B  0000              add [rax],al
00000D2D  0000              add [rax],al
00000D2F  0000              add [rax],al
00000D31  0000              add [rax],al
00000D33  0000              add [rax],al
00000D35  0000              add [rax],al
00000D37  0000              add [rax],al
00000D39  0000              add [rax],al
00000D3B  0000              add [rax],al
00000D3D  0000              add [rax],al
00000D3F  0000              add [rax],al
00000D41  0000              add [rax],al
00000D43  0000              add [rax],al
00000D45  0000              add [rax],al
00000D47  0000              add [rax],al
00000D49  0000              add [rax],al
00000D4B  0000              add [rax],al
00000D4D  0000              add [rax],al
00000D4F  0000              add [rax],al
00000D51  0000              add [rax],al
00000D53  0000              add [rax],al
00000D55  0000              add [rax],al
00000D57  0000              add [rax],al
00000D59  0000              add [rax],al
00000D5B  0000              add [rax],al
00000D5D  0000              add [rax],al
00000D5F  0000              add [rax],al
00000D61  0000              add [rax],al
00000D63  0000              add [rax],al
00000D65  0000              add [rax],al
00000D67  0000              add [rax],al
00000D69  0000              add [rax],al
00000D6B  0000              add [rax],al
00000D6D  0000              add [rax],al
00000D6F  0000              add [rax],al
00000D71  0000              add [rax],al
00000D73  0000              add [rax],al
00000D75  0000              add [rax],al
00000D77  0000              add [rax],al
00000D79  0000              add [rax],al
00000D7B  0000              add [rax],al
00000D7D  0000              add [rax],al
00000D7F  0000              add [rax],al
00000D81  0000              add [rax],al
00000D83  0000              add [rax],al
00000D85  0000              add [rax],al
00000D87  0000              add [rax],al
00000D89  0000              add [rax],al
00000D8B  0000              add [rax],al
00000D8D  0000              add [rax],al
00000D8F  0000              add [rax],al
00000D91  0000              add [rax],al
00000D93  0000              add [rax],al
00000D95  0000              add [rax],al
00000D97  0000              add [rax],al
00000D99  0000              add [rax],al
00000D9B  0000              add [rax],al
00000D9D  0000              add [rax],al
00000D9F  0000              add [rax],al
00000DA1  0000              add [rax],al
00000DA3  0000              add [rax],al
00000DA5  0000              add [rax],al
00000DA7  0000              add [rax],al
00000DA9  0000              add [rax],al
00000DAB  0000              add [rax],al
00000DAD  0000              add [rax],al
00000DAF  0000              add [rax],al
00000DB1  0000              add [rax],al
00000DB3  0000              add [rax],al
00000DB5  0000              add [rax],al
00000DB7  004006            add [rax+0x6],al
00000DBA  0000              add [rax],al
00000DBC  0000              add [rax],al
00000DBE  0000              add [rax],al
00000DC0  0006              add [rsi],al
00000DC2  0000              add [rax],al
00000DC4  0000              add [rax],al
00000DC6  0000              add [rax],al
00000DC8  0100              add [rax],eax
00000DCA  0000              add [rax],al
00000DCC  0000              add [rax],al
00000DCE  0000              add [rax],al
00000DD0  0100              add [rax],eax
00000DD2  0000              add [rax],al
00000DD4  0000              add [rax],al
00000DD6  0000              add [rax],al
00000DD8  0C00              or al,0x0
00000DDA  0000              add [rax],al
00000DDC  0000              add [rax],al
00000DDE  0000              add [rax],al
00000DE0  F00400            lock add al,0x0
00000DE3  0000              add [rax],al
00000DE5  0000              add [rax],al
00000DE7  000D00000000      add [rel 0xded],cl
00000DED  0000              add [rax],al
00000DEF  003407            add [rdi+rax],dh
00000DF2  0000              add [rax],al
00000DF4  0000              add [rax],al
00000DF6  0000              add [rax],al
00000DF8  1900              sbb [rax],eax
00000DFA  0000              add [rax],al
00000DFC  0000              add [rax],al
00000DFE  0000              add [rax],al
00000E00  B80D200000        mov eax,0x200d
00000E05  0000              add [rax],al
00000E07  001B              add [rbx],bl
00000E09  0000              add [rax],al
00000E0B  0000              add [rax],al
00000E0D  0000              add [rax],al
00000E0F  0008              add [rax],cl
00000E11  0000              add [rax],al
00000E13  0000              add [rax],al
00000E15  0000              add [rax],al
00000E17  001A              add [rdx],bl
00000E19  0000              add [rax],al
00000E1B  0000              add [rax],al
00000E1D  0000              add [rax],al
00000E1F  00C0              add al,al
00000E21  0D20000000        or eax,0x20
00000E26  0000              add [rax],al
00000E28  1C00              sbb al,0x0
00000E2A  0000              add [rax],al
00000E2C  0000              add [rax],al
00000E2E  0000              add [rax],al
00000E30  0800              or [rax],al
00000E32  0000              add [rax],al
00000E34  0000              add [rax],al
00000E36  0000              add [rax],al
00000E38  F5                cmc
00000E39  FE                db 0xfe
00000E3A  FF6F00            jmp dword far [rdi+0x0]
00000E3D  0000              add [rax],al
00000E3F  009802000000      add [rax+0x2],bl
00000E45  0000              add [rax],al
00000E47  000500000000      add [rel 0xe4d],al
00000E4D  0000              add [rax],al
00000E4F  006003            add [rax+0x3],ah
00000E52  0000              add [rax],al
00000E54  0000              add [rax],al
00000E56  0000              add [rax],al
00000E58  06                db 0x06
00000E59  0000              add [rax],al
00000E5B  0000              add [rax],al
00000E5D  0000              add [rax],al
00000E5F  00B802000000      add [rax+0x2],bh
00000E65  0000              add [rax],al
00000E67  000A              add [rdx],cl
00000E69  0000              add [rax],al
00000E6B  0000              add [rax],al
00000E6D  0000              add [rax],al
00000E6F  00840000000000    add [rax+rax+0x0],al
00000E76  0000              add [rax],al
00000E78  0B00              or eax,[rax]
00000E7A  0000              add [rax],al
00000E7C  0000              add [rax],al
00000E7E  0000              add [rax],al
00000E80  1800              sbb [rax],al
00000E82  0000              add [rax],al
00000E84  0000              add [rax],al
00000E86  0000              add [rax],al
00000E88  1500000000        adc eax,0x0
00000E8D  0000              add [rax],al
00000E8F  0000              add [rax],al
00000E91  0000              add [rax],al
00000E93  0000              add [rax],al
00000E95  0000              add [rax],al
00000E97  0003              add [rbx],al
00000E99  0000              add [rax],al
00000E9B  0000              add [rax],al
00000E9D  0000              add [rax],al
00000E9F  00B80F200000      add [rax+0x200f],bh
00000EA5  0000              add [rax],al
00000EA7  0002              add [rdx],al
00000EA9  0000              add [rax],al
00000EAB  0000              add [rax],al
00000EAD  0000              add [rax],al
00000EAF  0018              add [rax],bl
00000EB1  0000              add [rax],al
00000EB3  0000              add [rax],al
00000EB5  0000              add [rax],al
00000EB7  001400            add [rax+rax],dl
00000EBA  0000              add [rax],al
00000EBC  0000              add [rax],al
00000EBE  0000              add [rax],al
00000EC0  07                db 0x07
00000EC1  0000              add [rax],al
00000EC3  0000              add [rax],al
00000EC5  0000              add [rax],al
00000EC7  0017              add [rdi],dl
00000EC9  0000              add [rax],al
00000ECB  0000              add [rax],al
00000ECD  0000              add [rax],al
00000ECF  00D8              add al,bl
00000ED1  0400              add al,0x0
00000ED3  0000              add [rax],al
00000ED5  0000              add [rax],al
00000ED7  0007              add [rdi],al
00000ED9  0000              add [rax],al
00000EDB  0000              add [rax],al
00000EDD  0000              add [rax],al
00000EDF  0018              add [rax],bl
00000EE1  0400              add al,0x0
00000EE3  0000              add [rax],al
00000EE5  0000              add [rax],al
00000EE7  0008              add [rax],cl
00000EE9  0000              add [rax],al
00000EEB  0000              add [rax],al
00000EED  0000              add [rax],al
00000EEF  00C0              add al,al
00000EF1  0000              add [rax],al
00000EF3  0000              add [rax],al
00000EF5  0000              add [rax],al
00000EF7  0009              add [rcx],cl
00000EF9  0000              add [rax],al
00000EFB  0000              add [rax],al
00000EFD  0000              add [rax],al
00000EFF  0018              add [rax],bl
00000F01  0000              add [rax],al
00000F03  0000              add [rax],al
00000F05  0000              add [rax],al
00000F07  001E              add [rsi],bl
00000F09  0000              add [rax],al
00000F0B  0000              add [rax],al
00000F0D  0000              add [rax],al
00000F0F  0008              add [rax],cl
00000F11  0000              add [rax],al
00000F13  0000              add [rax],al
00000F15  0000              add [rax],al
00000F17  00FB              add bl,bh
00000F19  FF                db 0xff
00000F1A  FF6F00            jmp dword far [rdi+0x0]
00000F1D  0000              add [rax],al
00000F1F  0001              add [rcx],al
00000F21  0000              add [rax],al
00000F23  0800              or [rax],al
00000F25  0000              add [rax],al
00000F27  00FE              add dh,bh
00000F29  FF                db 0xff
00000F2A  FF6F00            jmp dword far [rdi+0x0]
00000F2D  0000              add [rax],al
00000F2F  00F8              add al,bh
00000F31  0300              add eax,[rax]
00000F33  0000              add [rax],al
00000F35  0000              add [rax],al
00000F37  00FF              add bh,bh
00000F39  FF                db 0xff
00000F3A  FF6F00            jmp dword far [rdi+0x0]
00000F3D  0000              add [rax],al
00000F3F  0001              add [rcx],al
00000F41  0000              add [rax],al
00000F43  0000              add [rax],al
00000F45  0000              add [rax],al
00000F47  00F0              add al,dh
00000F49  FF                db 0xff
00000F4A  FF6F00            jmp dword far [rdi+0x0]
00000F4D  0000              add [rax],al
00000F4F  00E4              add ah,ah
00000F51  0300              add eax,[rax]
00000F53  0000              add [rax],al
00000F55  0000              add [rax],al
00000F57  00F9              add cl,bh
00000F59  FF                db 0xff
00000F5A  FF6F00            jmp dword far [rdi+0x0]
00000F5D  0000              add [rax],al
00000F5F  0003              add [rbx],al
00000F61  0000              add [rax],al
00000F63  0000              add [rax],al
00000F65  0000              add [rax],al
00000F67  0000              add [rax],al
00000F69  0000              add [rax],al
00000F6B  0000              add [rax],al
00000F6D  0000              add [rax],al
00000F6F  0000              add [rax],al
00000F71  0000              add [rax],al
00000F73  0000              add [rax],al
00000F75  0000              add [rax],al
00000F77  0000              add [rax],al
00000F79  0000              add [rax],al
00000F7B  0000              add [rax],al
00000F7D  0000              add [rax],al
00000F7F  0000              add [rax],al
00000F81  0000              add [rax],al
00000F83  0000              add [rax],al
00000F85  0000              add [rax],al
00000F87  0000              add [rax],al
00000F89  0000              add [rax],al
00000F8B  0000              add [rax],al
00000F8D  0000              add [rax],al
00000F8F  0000              add [rax],al
00000F91  0000              add [rax],al
00000F93  0000              add [rax],al
00000F95  0000              add [rax],al
00000F97  0000              add [rax],al
00000F99  0000              add [rax],al
00000F9B  0000              add [rax],al
00000F9D  0000              add [rax],al
00000F9F  0000              add [rax],al
00000FA1  0000              add [rax],al
00000FA3  0000              add [rax],al
00000FA5  0000              add [rax],al
00000FA7  0000              add [rax],al
00000FA9  0000              add [rax],al
00000FAB  0000              add [rax],al
00000FAD  0000              add [rax],al
00000FAF  0000              add [rax],al
00000FB1  0000              add [rax],al
00000FB3  0000              add [rax],al
00000FB5  0000              add [rax],al
00000FB7  00C8              add al,cl
00000FB9  0D20000000        or eax,0x20
00000FBE  0000              add [rax],al
00000FC0  0000              add [rax],al
00000FC2  0000              add [rax],al
00000FC4  0000              add [rax],al
00000FC6  0000              add [rax],al
00000FC8  0000              add [rax],al
00000FCA  0000              add [rax],al
00000FCC  0000              add [rax],al
00000FCE  0000              add [rax],al
00000FD0  260500000000      es add eax,0x0
00000FD6  0000              add [rax],al
00000FD8  0000              add [rax],al
00000FDA  0000              add [rax],al
00000FDC  0000              add [rax],al
00000FDE  0000              add [rax],al
00000FE0  0000              add [rax],al
00000FE2  0000              add [rax],al
00000FE4  0000              add [rax],al
00000FE6  0000              add [rax],al
00000FE8  0000              add [rax],al
00000FEA  0000              add [rax],al
00000FEC  0000              add [rax],al
00000FEE  0000              add [rax],al
00000FF0  0000              add [rax],al
00000FF2  0000              add [rax],al
00000FF4  0000              add [rax],al
00000FF6  0000              add [rax],al
00000FF8  0000              add [rax],al
00000FFA  0000              add [rax],al
00000FFC  0000              add [rax],al
00000FFE  0000              add [rax],al
00001000  0000              add [rax],al
00001002  0000              add [rax],al
00001004  0000              add [rax],al
00001006  0000              add [rax],al
00001008  0810              or [rax],dl
0000100A  2000              and [rax],al
0000100C  0000              add [rax],al
0000100E  0000              add [rax],al
00001010  47                rex.rxb
00001011  43                rex.xb
00001012  433A20            cmp spl,[r8]
00001015  285562            sub [rbp+0x62],dl
00001018  756E              jnz 0x1088
0000101A  7475              jz 0x1091
0000101C  2037              and [rdi],dh
0000101E  2E342E            cs xor al,0x2e
00001021  302D31756275      xor [rel 0x75628558],ch
00001027  6E                outsb
00001028  7475              jz 0x109f
0000102A  317E31            xor [rsi+0x31],edi
0000102D  382E              cmp [rsi],ch
0000102F  30342E            xor [rsi+rbp],dh
00001032  3129              xor [rcx],ebp
00001034  2037              and [rdi],dh
00001036  2E342E            cs xor al,0x2e
00001039  3000              xor [rax],al
0000103B  0000              add [rax],al
0000103D  0000              add [rax],al
0000103F  0000              add [rax],al
00001041  0000              add [rax],al
00001043  0000              add [rax],al
00001045  0000              add [rax],al
00001047  0000              add [rax],al
00001049  0000              add [rax],al
0000104B  0000              add [rax],al
0000104D  0000              add [rax],al
0000104F  0000              add [rax],al
00001051  0000              add [rax],al
00001053  0000              add [rax],al
00001055  0000              add [rax],al
00001057  0000              add [rax],al
00001059  0000              add [rax],al
0000105B  0003              add [rbx],al
0000105D  0001              add [rcx],al
0000105F  0038              add [rax],bh
00001061  0200              add al,[rax]
00001063  0000              add [rax],al
00001065  0000              add [rax],al
00001067  0000              add [rax],al
00001069  0000              add [rax],al
0000106B  0000              add [rax],al
0000106D  0000              add [rax],al
0000106F  0000              add [rax],al
00001071  0000              add [rax],al
00001073  0003              add [rbx],al
00001075  0002              add [rdx],al
00001077  00540200          add [rdx+rax+0x0],dl
0000107B  0000              add [rax],al
0000107D  0000              add [rax],al
0000107F  0000              add [rax],al
00001081  0000              add [rax],al
00001083  0000              add [rax],al
00001085  0000              add [rax],al
00001087  0000              add [rax],al
00001089  0000              add [rax],al
0000108B  0003              add [rbx],al
0000108D  0003              add [rbx],al
0000108F  00740200          add [rdx+rax+0x0],dh
00001093  0000              add [rax],al
00001095  0000              add [rax],al
00001097  0000              add [rax],al
00001099  0000              add [rax],al
0000109B  0000              add [rax],al
0000109D  0000              add [rax],al
0000109F  0000              add [rax],al
000010A1  0000              add [rax],al
000010A3  0003              add [rbx],al
000010A5  000400            add [rax+rax],al
000010A8  98                cwde
000010A9  0200              add al,[rax]
000010AB  0000              add [rax],al
000010AD  0000              add [rax],al
000010AF  0000              add [rax],al
000010B1  0000              add [rax],al
000010B3  0000              add [rax],al
000010B5  0000              add [rax],al
000010B7  0000              add [rax],al
000010B9  0000              add [rax],al
000010BB  0003              add [rbx],al
000010BD  000500B80200      add [rel 0x2c8c3],al
000010C3  0000              add [rax],al
000010C5  0000              add [rax],al
000010C7  0000              add [rax],al
000010C9  0000              add [rax],al
000010CB  0000              add [rax],al
000010CD  0000              add [rax],al
000010CF  0000              add [rax],al
000010D1  0000              add [rax],al
000010D3  0003              add [rbx],al
000010D5  0006              add [rsi],al
000010D7  006003            add [rax+0x3],ah
000010DA  0000              add [rax],al
000010DC  0000              add [rax],al
000010DE  0000              add [rax],al
000010E0  0000              add [rax],al
000010E2  0000              add [rax],al
000010E4  0000              add [rax],al
000010E6  0000              add [rax],al
000010E8  0000              add [rax],al
000010EA  0000              add [rax],al
000010EC  0300              add eax,[rax]
000010EE  07                db 0x07
000010EF  00E4              add ah,ah
000010F1  0300              add eax,[rax]
000010F3  0000              add [rax],al
000010F5  0000              add [rax],al
000010F7  0000              add [rax],al
000010F9  0000              add [rax],al
000010FB  0000              add [rax],al
000010FD  0000              add [rax],al
000010FF  0000              add [rax],al
00001101  0000              add [rax],al
00001103  0003              add [rbx],al
00001105  0008              add [rax],cl
00001107  00F8              add al,bh
00001109  0300              add eax,[rax]
0000110B  0000              add [rax],al
0000110D  0000              add [rax],al
0000110F  0000              add [rax],al
00001111  0000              add [rax],al
00001113  0000              add [rax],al
00001115  0000              add [rax],al
00001117  0000              add [rax],al
00001119  0000              add [rax],al
0000111B  0003              add [rbx],al
0000111D  0009              add [rcx],cl
0000111F  0018              add [rax],bl
00001121  0400              add al,0x0
00001123  0000              add [rax],al
00001125  0000              add [rax],al
00001127  0000              add [rax],al
00001129  0000              add [rax],al
0000112B  0000              add [rax],al
0000112D  0000              add [rax],al
0000112F  0000              add [rax],al
00001131  0000              add [rax],al
00001133  0003              add [rbx],al
00001135  000A              add [rdx],cl
00001137  00D8              add al,bl
00001139  0400              add al,0x0
0000113B  0000              add [rax],al
0000113D  0000              add [rax],al
0000113F  0000              add [rax],al
00001141  0000              add [rax],al
00001143  0000              add [rax],al
00001145  0000              add [rax],al
00001147  0000              add [rax],al
00001149  0000              add [rax],al
0000114B  0003              add [rbx],al
0000114D  000B              add [rbx],cl
0000114F  00F0              add al,dh
00001151  0400              add al,0x0
00001153  0000              add [rax],al
00001155  0000              add [rax],al
00001157  0000              add [rax],al
00001159  0000              add [rax],al
0000115B  0000              add [rax],al
0000115D  0000              add [rax],al
0000115F  0000              add [rax],al
00001161  0000              add [rax],al
00001163  0003              add [rbx],al
00001165  000C00            add [rax+rax],cl
00001168  100500000000      adc [rel 0x116e],al
0000116E  0000              add [rax],al
00001170  0000              add [rax],al
00001172  0000              add [rax],al
00001174  0000              add [rax],al
00001176  0000              add [rax],al
00001178  0000              add [rax],al
0000117A  0000              add [rax],al
0000117C  0300              add eax,[rax]
0000117E  0D00300500        or eax,0x53000
00001183  0000              add [rax],al
00001185  0000              add [rax],al
00001187  0000              add [rax],al
00001189  0000              add [rax],al
0000118B  0000              add [rax],al
0000118D  0000              add [rax],al
0000118F  0000              add [rax],al
00001191  0000              add [rax],al
00001193  0003              add [rbx],al
00001195  000E              add [rsi],cl
00001197  004005            add [rax+0x5],al
0000119A  0000              add [rax],al
0000119C  0000              add [rax],al
0000119E  0000              add [rax],al
000011A0  0000              add [rax],al
000011A2  0000              add [rax],al
000011A4  0000              add [rax],al
000011A6  0000              add [rax],al
000011A8  0000              add [rax],al
000011AA  0000              add [rax],al
000011AC  0300              add eax,[rax]
000011AE  0F003407          jmpe dword [rdi+rax]
000011B2  0000              add [rax],al
000011B4  0000              add [rax],al
000011B6  0000              add [rax],al
000011B8  0000              add [rax],al
000011BA  0000              add [rax],al
000011BC  0000              add [rax],al
000011BE  0000              add [rax],al
000011C0  0000              add [rax],al
000011C2  0000              add [rax],al
000011C4  0300              add eax,[rax]
000011C6  1000              adc [rax],al
000011C8  40                rex
000011C9  07                db 0x07
000011CA  0000              add [rax],al
000011CC  0000              add [rax],al
000011CE  0000              add [rax],al
000011D0  0000              add [rax],al
000011D2  0000              add [rax],al
000011D4  0000              add [rax],al
000011D6  0000              add [rax],al
000011D8  0000              add [rax],al
000011DA  0000              add [rax],al
000011DC  0300              add eax,[rax]
000011DE  1100              adc [rax],eax
000011E0  58                pop rax
000011E1  07                db 0x07
000011E2  0000              add [rax],al
000011E4  0000              add [rax],al
000011E6  0000              add [rax],al
000011E8  0000              add [rax],al
000011EA  0000              add [rax],al
000011EC  0000              add [rax],al
000011EE  0000              add [rax],al
000011F0  0000              add [rax],al
000011F2  0000              add [rax],al
000011F4  0300              add eax,[rax]
000011F6  1200              adc al,[rax]
000011F8  A007000000000000  mov al,[qword 0x7]
         -00
00001201  0000              add [rax],al
00001203  0000              add [rax],al
00001205  0000              add [rax],al
00001207  0000              add [rax],al
00001209  0000              add [rax],al
0000120B  0003              add [rbx],al
0000120D  0013              add [rbx],dl
0000120F  00B80D200000      add [rax+0x200d],bh
00001215  0000              add [rax],al
00001217  0000              add [rax],al
00001219  0000              add [rax],al
0000121B  0000              add [rax],al
0000121D  0000              add [rax],al
0000121F  0000              add [rax],al
00001221  0000              add [rax],al
00001223  0003              add [rbx],al
00001225  001400            add [rax+rax],dl
00001228  C00D2000000000    ror byte [rel 0x124f],byte 0x0
0000122F  0000              add [rax],al
00001231  0000              add [rax],al
00001233  0000              add [rax],al
00001235  0000              add [rax],al
00001237  0000              add [rax],al
00001239  0000              add [rax],al
0000123B  0003              add [rbx],al
0000123D  001500C80D20      add [rel 0x200dda43],dl
00001243  0000              add [rax],al
00001245  0000              add [rax],al
00001247  0000              add [rax],al
00001249  0000              add [rax],al
0000124B  0000              add [rax],al
0000124D  0000              add [rax],al
0000124F  0000              add [rax],al
00001251  0000              add [rax],al
00001253  0003              add [rbx],al
00001255  0016              add [rsi],dl
00001257  00B80F200000      add [rax+0x200f],bh
0000125D  0000              add [rax],al
0000125F  0000              add [rax],al
00001261  0000              add [rax],al
00001263  0000              add [rax],al
00001265  0000              add [rax],al
00001267  0000              add [rax],al
00001269  0000              add [rax],al
0000126B  0003              add [rbx],al
0000126D  0017              add [rdi],dl
0000126F  0000              add [rax],al
00001271  1020              adc [rax],ah
00001273  0000              add [rax],al
00001275  0000              add [rax],al
00001277  0000              add [rax],al
00001279  0000              add [rax],al
0000127B  0000              add [rax],al
0000127D  0000              add [rax],al
0000127F  0000              add [rax],al
00001281  0000              add [rax],al
00001283  0003              add [rbx],al
00001285  0018              add [rax],bl
00001287  0010              add [rax],dl
00001289  1020              adc [rax],ah
0000128B  0000              add [rax],al
0000128D  0000              add [rax],al
0000128F  0000              add [rax],al
00001291  0000              add [rax],al
00001293  0000              add [rax],al
00001295  0000              add [rax],al
00001297  0000              add [rax],al
00001299  0000              add [rax],al
0000129B  0003              add [rbx],al
0000129D  0019              add [rcx],bl
0000129F  0000              add [rax],al
000012A1  0000              add [rax],al
000012A3  0000              add [rax],al
000012A5  0000              add [rax],al
000012A7  0000              add [rax],al
000012A9  0000              add [rax],al
000012AB  0000              add [rax],al
000012AD  0000              add [rax],al
000012AF  0001              add [rcx],al
000012B1  0000              add [rax],al
000012B3  000400            add [rax+rax],al
000012B6  F1                int1
000012B7  FF00              inc dword [rax]
000012B9  0000              add [rax],al
000012BB  0000              add [rax],al
000012BD  0000              add [rax],al
000012BF  0000              add [rax],al
000012C1  0000              add [rax],al
000012C3  0000              add [rax],al
000012C5  0000              add [rax],al
000012C7  000C00            add [rax+rax],cl
000012CA  0000              add [rax],al
000012CC  0200              add al,[rax]
000012CE  0E                db 0x0e
000012CF  007005            add [rax+0x5],dh
000012D2  0000              add [rax],al
000012D4  0000              add [rax],al
000012D6  0000              add [rax],al
000012D8  0000              add [rax],al
000012DA  0000              add [rax],al
000012DC  0000              add [rax],al
000012DE  0000              add [rax],al
000012E0  0E                db 0x0e
000012E1  0000              add [rax],al
000012E3  0002              add [rdx],al
000012E5  000E              add [rsi],cl
000012E7  00B005000000      add [rax+0x5],dh
000012ED  0000              add [rax],al
000012EF  0000              add [rax],al
000012F1  0000              add [rax],al
000012F3  0000              add [rax],al
000012F5  0000              add [rax],al
000012F7  0021              add [rcx],ah
000012F9  0000              add [rax],al
000012FB  0002              add [rdx],al
000012FD  000E              add [rsi],cl
000012FF  0000              add [rax],al
00001301  06                db 0x06
00001302  0000              add [rax],al
00001304  0000              add [rax],al
00001306  0000              add [rax],al
00001308  0000              add [rax],al
0000130A  0000              add [rax],al
0000130C  0000              add [rax],al
0000130E  0000              add [rax],al
00001310  37                db 0x37
00001311  0000              add [rax],al
00001313  0001              add [rcx],al
00001315  0018              add [rax],bl
00001317  0010              add [rax],dl
00001319  1020              adc [rax],ah
0000131B  0000              add [rax],al
0000131D  0000              add [rax],al
0000131F  0001              add [rcx],al
00001321  0000              add [rax],al
00001323  0000              add [rax],al
00001325  0000              add [rax],al
00001327  004600            add [rsi+0x0],al
0000132A  0000              add [rax],al
0000132C  0100              add [rax],eax
0000132E  1400              adc al,0x0
00001330  C00D2000000000    ror byte [rel 0x1357],byte 0x0
00001337  0000              add [rax],al
00001339  0000              add [rax],al
0000133B  0000              add [rax],al
0000133D  0000              add [rax],al
0000133F  006D00            add [rbp+0x0],ch
00001342  0000              add [rax],al
00001344  0200              add al,[rax]
00001346  0E                db 0x0e
00001347  004006            add [rax+0x6],al
0000134A  0000              add [rax],al
0000134C  0000              add [rax],al
0000134E  0000              add [rax],al
00001350  0000              add [rax],al
00001352  0000              add [rax],al
00001354  0000              add [rax],al
00001356  0000              add [rax],al
00001358  7900              jns 0x135a
0000135A  0000              add [rax],al
0000135C  0100              add [rax],eax
0000135E  1300              adc eax,[rax]
00001360  B80D200000        mov eax,0x200d
00001365  0000              add [rax],al
00001367  0000              add [rax],al
00001369  0000              add [rax],al
0000136B  0000              add [rax],al
0000136D  0000              add [rax],al
0000136F  009800000004      add [rax+0x4000000],bl
00001375  00F1              add cl,dh
00001377  FF00              inc dword [rax]
00001379  0000              add [rax],al
0000137B  0000              add [rax],al
0000137D  0000              add [rax],al
0000137F  0000              add [rax],al
00001381  0000              add [rax],al
00001383  0000              add [rax],al
00001385  0000              add [rax],al
00001387  0001              add [rcx],al
00001389  0000              add [rax],al
0000138B  000400            add [rax+rax],al
0000138E  F1                int1
0000138F  FF00              inc dword [rax]
00001391  0000              add [rax],al
00001393  0000              add [rax],al
00001395  0000              add [rax],al
00001397  0000              add [rax],al
00001399  0000              add [rax],al
0000139B  0000              add [rax],al
0000139D  0000              add [rax],al
0000139F  00A100000001      add [rcx+0x1000000],ah
000013A5  0012              add [rdx],dl
000013A7  00C4              add ah,al
000013A9  0800              or [rax],al
000013AB  0000              add [rax],al
000013AD  0000              add [rax],al
000013AF  0000              add [rax],al
000013B1  0000              add [rax],al
000013B3  0000              add [rax],al
000013B5  0000              add [rax],al
000013B7  0000              add [rax],al
000013B9  0000              add [rax],al
000013BB  000400            add [rax+rax],al
000013BE  F1                int1
000013BF  FF00              inc dword [rax]
000013C1  0000              add [rax],al
000013C3  0000              add [rax],al
000013C5  0000              add [rax],al
000013C7  0000              add [rax],al
000013C9  0000              add [rax],al
000013CB  0000              add [rax],al
000013CD  0000              add [rax],al
000013CF  00AF00000000      add [rdi+0x0],ch
000013D5  0013              add [rbx],dl
000013D7  00C0              add al,al
000013D9  0D20000000        or eax,0x20
000013DE  0000              add [rax],al
000013E0  0000              add [rax],al
000013E2  0000              add [rax],al
000013E4  0000              add [rax],al
000013E6  0000              add [rax],al
000013E8  C00000            rol byte [rax],byte 0x0
000013EB  0001              add [rcx],al
000013ED  001500C80D20      add [rel 0x200ddbf3],dl
000013F3  0000              add [rax],al
000013F5  0000              add [rax],al
000013F7  0000              add [rax],al
000013F9  0000              add [rax],al
000013FB  0000              add [rax],al
000013FD  0000              add [rax],al
000013FF  00C9              add cl,cl
00001401  0000              add [rax],al
00001403  0000              add [rax],al
00001405  0013              add [rbx],dl
00001407  00B80D200000      add [rax+0x200d],bh
0000140D  0000              add [rax],al
0000140F  0000              add [rax],al
00001411  0000              add [rax],al
00001413  0000              add [rax],al
00001415  0000              add [rax],al
00001417  00DC              add ah,bl
00001419  0000              add [rax],al
0000141B  0000              add [rax],al
0000141D  0011              add [rcx],dl
0000141F  005807            add [rax+0x7],bl
00001422  0000              add [rax],al
00001424  0000              add [rax],al
00001426  0000              add [rax],al
00001428  0000              add [rax],al
0000142A  0000              add [rax],al
0000142C  0000              add [rax],al
0000142E  0000              add [rax],al
00001430  EF                out dx,eax
00001431  0000              add [rax],al
00001433  0001              add [rcx],al
00001435  0016              add [rsi],dl
00001437  00B80F200000      add [rax+0x200f],bh
0000143D  0000              add [rax],al
0000143F  0000              add [rax],al
00001441  0000              add [rax],al
00001443  0000              add [rax],al
00001445  0000              add [rax],al
00001447  000501000012      add [rel 0x1200144e],al
0000144D  000E              add [rsi],cl
0000144F  0030              add [rax],dh
00001451  07                db 0x07
00001452  0000              add [rax],al
00001454  0000              add [rax],al
00001456  0000              add [rax],al
00001458  0200              add al,[rax]
0000145A  0000              add [rax],al
0000145C  0000              add [rax],al
0000145E  0000              add [rax],al
00001460  1501000020        adc eax,0x20000001
00001465  0000              add [rax],al
00001467  0000              add [rax],al
00001469  0000              add [rax],al
0000146B  0000              add [rax],al
0000146D  0000              add [rax],al
0000146F  0000              add [rax],al
00001471  0000              add [rax],al
00001473  0000              add [rax],al
00001475  0000              add [rax],al
00001477  007601            add [rsi+0x1],dh
0000147A  0000              add [rax],al
0000147C  2000              and [rax],al
0000147E  17                db 0x17
0000147F  0000              add [rax],al
00001481  1020              adc [rax],ah
00001483  0000              add [rax],al
00001485  0000              add [rax],al
00001487  0000              add [rax],al
00001489  0000              add [rax],al
0000148B  0000              add [rax],al
0000148D  0000              add [rax],al
0000148F  0031              add [rcx],dh
00001491  0100              add [rax],eax
00001493  0010              add [rax],dl
00001495  0017              add [rdi],dl
00001497  0010              add [rax],dl
00001499  1020              adc [rax],ah
0000149B  0000              add [rax],al
0000149D  0000              add [rax],al
0000149F  0000              add [rax],al
000014A1  0000              add [rax],al
000014A3  0000              add [rax],al
000014A5  0000              add [rax],al
000014A7  0038              add [rax],bh
000014A9  0100              add [rax],eax
000014AB  0012              add [rdx],dl
000014AD  000E              add [rsi],cl
000014AF  004A06            add [rdx+0x6],cl
000014B2  0000              add [rax],al
000014B4  0000              add [rax],al
000014B6  0000              add [rax],al
000014B8  1F                db 0x1f
000014B9  0000              add [rax],al
000014BB  0000              add [rax],al
000014BD  0000              add [rax],al
000014BF  000F              add [rdi],cl
000014C1  0100              add [rax],eax
000014C3  0012              add [rdx],dl
000014C5  000F              add [rdi],cl
000014C7  003407            add [rdi+rax],dh
000014CA  0000              add [rax],al
000014CC  0000              add [rax],al
000014CE  0000              add [rax],al
000014D0  0000              add [rax],al
000014D2  0000              add [rax],al
000014D4  0000              add [rax],al
000014D6  0000              add [rax],al
000014D8  410100            add [r8],eax
000014DB  0012              add [rdx],dl
000014DD  0000              add [rax],al
000014DF  0000              add [rax],al
000014E1  0000              add [rax],al
000014E3  0000              add [rax],al
000014E5  0000              add [rax],al
000014E7  0000              add [rax],al
000014E9  0000              add [rax],al
000014EB  0000              add [rax],al
000014ED  0000              add [rax],al
000014EF  005501            add [rbp+0x1],dl
000014F2  0000              add [rax],al
000014F4  1200              adc al,[rax]
000014F6  0000              add [rax],al
000014F8  0000              add [rax],al
000014FA  0000              add [rax],al
000014FC  0000              add [rax],al
000014FE  0000              add [rax],al
00001500  0000              add [rax],al
00001502  0000              add [rax],al
00001504  0000              add [rax],al
00001506  0000              add [rax],al
00001508  7401              jz 0x150b
0000150A  0000              add [rax],al
0000150C  1000              adc [rax],al
0000150E  17                db 0x17
0000150F  0000              add [rax],al
00001511  1020              adc [rax],ah
00001513  0000              add [rax],al
00001515  0000              add [rax],al
00001517  0000              add [rax],al
00001519  0000              add [rax],al
0000151B  0000              add [rax],al
0000151D  0000              add [rax],al
0000151F  008101000020      add [rcx+0x20000001],al
00001525  0000              add [rax],al
00001527  0000              add [rax],al
00001529  0000              add [rax],al
0000152B  0000              add [rax],al
0000152D  0000              add [rax],al
0000152F  0000              add [rax],al
00001531  0000              add [rax],al
00001533  0000              add [rax],al
00001535  0000              add [rax],al
00001537  009001000011      add [rax+0x11000001],dl
0000153D  0217              add dl,[rdi]
0000153F  0008              add [rax],cl
00001541  1020              adc [rax],ah
00001543  0000              add [rax],al
00001545  0000              add [rax],al
00001547  0000              add [rax],al
00001549  0000              add [rax],al
0000154B  0000              add [rax],al
0000154D  0000              add [rax],al
0000154F  009D01000011      add [rbp+0x11000001],bl
00001555  0010              add [rax],dl
00001557  004007            add [rax+0x7],al
0000155A  0000              add [rax],al
0000155C  0000              add [rax],al
0000155E  0000              add [rax],al
00001560  0400              add al,0x0
00001562  0000              add [rax],al
00001564  0000              add [rax],al
00001566  0000              add [rax],al
00001568  AC                lodsb
00001569  0100              add [rax],eax
0000156B  0012              add [rdx],dl
0000156D  000E              add [rsi],cl
0000156F  00C0              add al,al
00001571  06                db 0x06
00001572  0000              add [rax],al
00001574  0000              add [rax],al
00001576  0000              add [rax],al
00001578  650000            add [gs:rax],al
0000157B  0000              add [rax],al
0000157D  0000              add [rax],al
0000157F  00BB00000010      add [rbx+0x10000000],bh
00001585  0018              add [rax],bl
00001587  0018              add [rax],bl
00001589  1020              adc [rax],ah
0000158B  0000              add [rax],al
0000158D  0000              add [rax],al
0000158F  0000              add [rax],al
00001591  0000              add [rax],al
00001593  0000              add [rax],al
00001595  0000              add [rax],al
00001597  007A01            add [rdx+0x1],bh
0000159A  0000              add [rax],al
0000159C  1200              adc al,[rax]
0000159E  0E                db 0x0e
0000159F  004005            add [rax+0x5],al
000015A2  0000              add [rax],al
000015A4  0000              add [rax],al
000015A6  0000              add [rax],al
000015A8  2B00              sub eax,[rax]
000015AA  0000              add [rax],al
000015AC  0000              add [rax],al
000015AE  0000              add [rax],al
000015B0  BC01000010        mov esp,0x10000001
000015B5  0018              add [rax],bl
000015B7  0010              add [rax],dl
000015B9  1020              adc [rax],ah
000015BB  0000              add [rax],al
000015BD  0000              add [rax],al
000015BF  0000              add [rax],al
000015C1  0000              add [rax],al
000015C3  0000              add [rax],al
000015C5  0000              add [rax],al
000015C7  00C8              add al,cl
000015C9  0100              add [rax],eax
000015CB  0012              add [rdx],dl
000015CD  000E              add [rsi],cl
000015CF  006906            add [rcx+0x6],ch
000015D2  0000              add [rax],al
000015D4  0000              add [rax],al
000015D6  0000              add [rax],al
000015D8  480000            o64 add [rax],al
000015DB  0000              add [rax],al
000015DD  0000              add [rax],al
000015DF  00CD              add ch,cl
000015E1  0100              add [rax],eax
000015E3  0011              add [rcx],dl
000015E5  0217              add dl,[rdi]
000015E7  0010              add [rax],dl
000015E9  1020              adc [rax],ah
000015EB  0000              add [rax],al
000015ED  0000              add [rax],al
000015EF  0000              add [rax],al
000015F1  0000              add [rax],al
000015F3  0000              add [rax],al
000015F5  0000              add [rax],al
000015F7  00D9              add cl,bl
000015F9  0100              add [rax],eax
000015FB  0020              add [rax],ah
000015FD  0000              add [rax],al
000015FF  0000              add [rax],al
00001601  0000              add [rax],al
00001603  0000              add [rax],al
00001605  0000              add [rax],al
00001607  0000              add [rax],al
00001609  0000              add [rax],al
0000160B  0000              add [rax],al
0000160D  0000              add [rax],al
0000160F  00F3              add bl,dh
00001611  0100              add [rax],eax
00001613  0022              add [rdx],ah
00001615  0000              add [rax],al
00001617  0000              add [rax],al
00001619  0000              add [rax],al
0000161B  0000              add [rax],al
0000161D  0000              add [rax],al
0000161F  0000              add [rax],al
00001621  0000              add [rax],al
00001623  0000              add [rax],al
00001625  0000              add [rax],al
00001627  00B601000012      add [rsi+0x12000001],dh
0000162D  000B              add [rbx],cl
0000162F  00F0              add al,dh
00001631  0400              add al,0x0
00001633  0000              add [rax],al
00001635  0000              add [rax],al
00001637  0000              add [rax],al
00001639  0000              add [rax],al
0000163B  0000              add [rax],al
0000163D  0000              add [rax],al
0000163F  0000              add [rax],al
00001641  63                db 0x63
00001642  7274              jc 0x16b8
00001644  7374              jnc 0x16ba
00001646  7566              jnz 0x16ae
00001648  66                o16
00001649  2E                cs
0000164A  63                db 0x63
0000164B  00646572          add [rbp+0x72],ah
0000164F  656769737465725F  imul esi,[gs:ebx+0x74],dword 0x745f7265
         -74
00001658  6D                insd
00001659  5F                pop rdi
0000165A  63                db 0x63
0000165B  6C                insb
0000165C  6F                outsd
0000165D  6E                outsb
0000165E  657300            gs jnc 0x1661
00001661  5F                pop rdi
00001662  5F                pop rdi
00001663  646F              fs outsd
00001665  5F                pop rdi
00001666  676C              a32 insb
00001668  6F                outsd
00001669  62                db 0x62
0000166A  61                db 0x61
0000166B  6C                insb
0000166C  5F                pop rdi
0000166D  64746F            fs jz 0x16df
00001670  7273              jc 0x16e5
00001672  5F                pop rdi
00001673  61                db 0x61
00001674  7578              jnz 0x16ee
00001676  00636F            add [rbx+0x6f],ah
00001679  6D                insd
0000167A  706C              jo 0x16e8
0000167C  657465            gs jz 0x16e4
0000167F  64                fs
00001680  2E                cs
00001681  37                db 0x37
00001682  363937            cmp [ss:rdi],esi
00001685  005F5F            add [rdi+0x5f],bl
00001688  646F              fs outsd
0000168A  5F                pop rdi
0000168B  676C              a32 insb
0000168D  6F                outsd
0000168E  62                db 0x62
0000168F  61                db 0x61
00001690  6C                insb
00001691  5F                pop rdi
00001692  64746F            fs jz 0x1704
00001695  7273              jc 0x170a
00001697  5F                pop rdi
00001698  61                db 0x61
00001699  7578              jnz 0x1713
0000169B  5F                pop rdi
0000169C  66696E695F61      imul bp,[rsi+0x69],word 0x615f
000016A2  7272              jc 0x1716
000016A4  61                db 0x61
000016A5  795F              jns 0x1706
000016A7  656E              gs outsb
000016A9  7472              jz 0x171d
000016AB  7900              jns 0x16ad
000016AD  667261            o16 jc 0x1711
000016B0  6D                insd
000016B1  655F              gs pop rdi
000016B3  64756D            fs jnz 0x1723
000016B6  6D                insd
000016B7  7900              jns 0x16b9
000016B9  5F                pop rdi
000016BA  5F                pop rdi
000016BB  667261            o16 jc 0x171f
000016BE  6D                insd
000016BF  655F              gs pop rdi
000016C1  64756D            fs jnz 0x1731
000016C4  6D                insd
000016C5  795F              jns 0x1726
000016C7  696E69745F6172    imul ebp,[rsi+0x69],dword 0x72615f74
000016CE  7261              jc 0x1731
000016D0  795F              jns 0x1731
000016D2  656E              gs outsb
000016D4  7472              jz 0x1748
000016D6  7900              jns 0x16d8
000016D8  7465              jz 0x173f
000016DA  7374              jnc 0x1750
000016DC  65722E            gs jc 0x170d
000016DF  63                db 0x63
000016E0  005F5F            add [rdi+0x5f],bl
000016E3  4652              push rdx
000016E5  41                rex.b
000016E6  4D                rex.wrb
000016E7  455F              pop r15
000016E9  45                rex.rb
000016EA  4E                rex.wrx
000016EB  445F              pop rdi
000016ED  5F                pop rdi
000016EE  005F5F            add [rdi+0x5f],bl
000016F1  696E69745F6172    imul ebp,[rsi+0x69],dword 0x72615f74
000016F8  7261              jc 0x175b
000016FA  795F              jns 0x175b
000016FC  656E              gs outsb
000016FE  64005F44          add [fs:rdi+0x44],bl
00001702  59                pop rcx
00001703  4E                rex.wrx
00001704  41                rex.b
00001705  4D                rex.wrb
00001706  49                rex.wb
00001707  43005F5F          add [r15+0x5f],bl
0000170B  696E69745F6172    imul ebp,[rsi+0x69],dword 0x72615f74
00001712  7261              jc 0x1775
00001714  795F              jns 0x1775
00001716  7374              jnc 0x178c
00001718  61                db 0x61
00001719  7274              jc 0x178f
0000171B  005F5F            add [rdi+0x5f],bl
0000171E  47                rex.rxb
0000171F  4E55              push rbp
00001721  5F                pop rdi
00001722  45                rex.rb
00001723  485F              pop rdi
00001725  4652              push rdx
00001727  41                rex.b
00001728  4D                rex.wrb
00001729  455F              pop r15
0000172B  48                rex.w
0000172C  4452              push rdx
0000172E  005F47            add [rdi+0x47],bl
00001731  4C                rex.wr
00001732  4F                rex.wrxb
00001733  42                rex.x
00001734  41                rex.b
00001735  4C5F              pop rdi
00001737  4F                rex.wrxb
00001738  46                rex.rx
00001739  4653              push rbx
0000173B  4554              push r12
0000173D  5F                pop rdi
0000173E  54                push rsp
0000173F  41                rex.b
00001740  42                rex.x
00001741  4C                rex.wr
00001742  455F              pop r15
00001744  005F5F            add [rdi+0x5f],bl
00001747  6C                insb
00001748  6962635F637375    imul esp,[rdx+0x63],dword 0x7573635f
0000174F  5F                pop rdi
00001750  66696E69005F      imul bp,[rsi+0x69],word 0x5f00
00001756  4954              push r12
00001758  4D5F              pop r15
0000175A  64657265          gs jc 0x17c3
0000175E  676973746572544D  imul esi,[ebx+0x74],dword 0x4d547265
00001766  436C              insb
00001768  6F                outsd
00001769  6E                outsb
0000176A  6554              gs push rsp
0000176C  61                db 0x61
0000176D  62                db 0x62
0000176E  6C                insb
0000176F  65005F65          add [gs:rdi+0x65],bl
00001773  64                fs
00001774  61                db 0x61
00001775  7461              jz 0x17d8
00001777  00616E            add [rcx+0x6e],ah
0000177A  645F              fs pop rdi
0000177C  66756E            o16 jnz 0x17ed
0000177F  63                db 0x63
00001780  007072            add [rax+0x72],dh
00001783  696E7466404047    imul ebp,[rsi+0x74],dword 0x47404066
0000178A  4C                rex.wr
0000178B  49                rex.wb
0000178C  42                rex.x
0000178D  435F              pop r15
0000178F  322E              xor ch,[rsi]
00001791  322E              xor ch,[rsi]
00001793  35005F5F6C        xor eax,0x6c5f5f00
00001798  6962635F737461    imul esp,[rdx+0x63],dword 0x6174735f
0000179F  7274              jc 0x1815
000017A1  5F                pop rdi
000017A2  6D                insd
000017A3  61                db 0x61
000017A4  696E4040474C49    imul ebp,[rsi+0x40],dword 0x494c4740
000017AB  42                rex.x
000017AC  435F              pop r15
000017AE  322E              xor ch,[rsi]
000017B0  322E              xor ch,[rsi]
000017B2  35005F5F64        xor eax,0x645f5f00
000017B7  61                db 0x61
000017B8  7461              jz 0x181b
000017BA  5F                pop rdi
000017BB  7374              jnc 0x1831
000017BD  61                db 0x61
000017BE  7274              jc 0x1834
000017C0  005F5F            add [rdi+0x5f],bl
000017C3  676D              a32 insd
000017C5  6F                outsd
000017C6  6E                outsb
000017C7  5F                pop rdi
000017C8  7374              jnc 0x183e
000017CA  61                db 0x61
000017CB  7274              jc 0x1841
000017CD  5F                pop rdi
000017CE  5F                pop rdi
000017CF  005F5F            add [rdi+0x5f],bl
000017D2  64736F            fs jnc 0x1844
000017D5  5F                pop rdi
000017D6  68616E646C        push qword 0x6c646e61
000017DB  65005F49          add [gs:rdi+0x49],bl
000017DF  4F5F              pop r15
000017E1  7374              jnc 0x1857
000017E3  64696E5F75736564  imul ebp,[fs:rsi+0x5f],dword 0x64657375
000017EB  005F5F            add [rdi+0x5f],bl
000017EE  6C                insb
000017EF  6962635F637375    imul esp,[rdx+0x63],dword 0x7573635f
000017F6  5F                pop rdi
000017F7  696E6974005F5F    imul ebp,[rsi+0x69],dword 0x5f5f0074
000017FE  62                db 0x62
000017FF  7373              jnc 0x1874
00001801  5F                pop rdi
00001802  7374              jnc 0x1878
00001804  61                db 0x61
00001805  7274              jc 0x187b
00001807  006D61            add [rbp+0x61],ch
0000180A  696E005F5F544D    imul ebp,[rsi+0x0],dword 0x4d545f5f
00001811  435F              pop r15
00001813  45                rex.rb
00001814  4E                rex.wrx
00001815  445F              pop rdi
00001817  5F                pop rdi
00001818  005F49            add [rdi+0x49],bl
0000181B  54                push rsp
0000181C  4D5F              pop r15
0000181E  7265              jc 0x1885
00001820  676973746572544D  imul esi,[ebx+0x74],dword 0x4d547265
00001828  436C              insb
0000182A  6F                outsd
0000182B  6E                outsb
0000182C  6554              gs push rsp
0000182E  61                db 0x61
0000182F  62                db 0x62
00001830  6C                insb
00001831  65005F5F          add [gs:rdi+0x5f],bl
00001835  63                db 0x63
00001836  7861              js 0x1899
00001838  5F                pop rdi
00001839  66696E616C69      imul bp,[rsi+0x61],word 0x696c
0000183F  7A65              jpe 0x18a6
00001841  40                rex
00001842  40                rex
00001843  47                rex.rxb
00001844  4C                rex.wr
00001845  49                rex.wb
00001846  42                rex.x
00001847  435F              pop r15
00001849  322E              xor ch,[rsi]
0000184B  322E              xor ch,[rsi]
0000184D  3500002E73        xor eax,0x732e0000
00001852  796D              jns 0x18c1
00001854  7461              jz 0x18b7
00001856  62                db 0x62
00001857  002E              add [rsi],ch
00001859  7374              jnc 0x18cf
0000185B  7274              jc 0x18d1
0000185D  61                db 0x61
0000185E  62                db 0x62
0000185F  002E              add [rsi],ch
00001861  7368              jnc 0x18cb
00001863  7374              jnc 0x18d9
00001865  7274              jc 0x18db
00001867  61                db 0x61
00001868  62                db 0x62
00001869  002E              add [rsi],ch
0000186B  696E7465727000    imul ebp,[rsi+0x74],dword 0x707265
00001872  2E6E              cs outsb
00001874  6F                outsd
00001875  7465              jz 0x18dc
00001877  2E                cs
00001878  41                rex.b
00001879  42                rex.x
0000187A  492D74616700      sub rax,0x676174
00001880  2E6E              cs outsb
00001882  6F                outsd
00001883  7465              jz 0x18ea
00001885  2E676E            cs a32 outsb
00001888  752E              jnz 0x18b8
0000188A  62                db 0x62
0000188B  7569              jnz 0x18f6
0000188D  6C                insb
0000188E  642D6964002E      fs sub eax,0x2e006469
00001894  676E              a32 outsb
00001896  752E              jnz 0x18c6
00001898  6861736800        push qword 0x687361
0000189D  2E64796E          fs jns 0x190f
000018A1  7379              jnc 0x191c
000018A3  6D                insd
000018A4  002E              add [rsi],ch
000018A6  64796E            fs jns 0x1917
000018A9  7374              jnc 0x191f
000018AB  7200              jc 0x18ad
000018AD  2E676E            cs a32 outsb
000018B0  752E              jnz 0x18e0
000018B2  7665              jna 0x1919
000018B4  7273              jc 0x1929
000018B6  696F6E002E676E    imul ebp,[rdi+0x6e],dword 0x6e672e00
000018BD  752E              jnz 0x18ed
000018BF  7665              jna 0x1926
000018C1  7273              jc 0x1936
000018C3  696F6E5F72002E    imul ebp,[rdi+0x6e],dword 0x2e00725f
000018CA  7265              jc 0x1931
000018CC  6C                insb
000018CD  61                db 0x61
000018CE  2E64796E          fs jns 0x1940
000018D2  002E              add [rsi],ch
000018D4  7265              jc 0x193b
000018D6  6C                insb
000018D7  61                db 0x61
000018D8  2E706C            cs jo 0x1947
000018DB  7400              jz 0x18dd
000018DD  2E696E6974002E70  imul ebp,[cs:rsi+0x69],dword 0x702e0074
000018E5  6C                insb
000018E6  742E              jz 0x1916
000018E8  676F              a32 outsd
000018EA  7400              jz 0x18ec
000018EC  2E7465            cs jz 0x1954
000018EF  7874              js 0x1965
000018F1  002E              add [rsi],ch
000018F3  66696E69002E      imul bp,[rsi+0x69],word 0x2e00
000018F9  726F              jc 0x196a
000018FB  64                fs
000018FC  61                db 0x61
000018FD  7461              jz 0x1960
000018FF  002E              add [rsi],ch
00001901  65685F667261      gs push qword 0x6172665f
00001907  6D                insd
00001908  655F              gs pop rdi
0000190A  686472002E        push qword 0x2e007264
0000190F  65685F667261      gs push qword 0x6172665f
00001915  6D                insd
00001916  65002E            add [gs:rsi],ch
00001919  696E69745F6172    imul ebp,[rsi+0x69],dword 0x72615f74
00001920  7261              jc 0x1983
00001922  7900              jns 0x1924
00001924  2E66696E695F61    imul bp,[cs:rsi+0x69],word 0x615f
0000192B  7272              jc 0x199f
0000192D  61                db 0x61
0000192E  7900              jns 0x1930
00001930  2E64796E          fs jns 0x19a2
00001934  61                db 0x61
00001935  6D                insd
00001936  6963002E646174    imul esp,[rbx+0x0],dword 0x7461642e
0000193D  61                db 0x61
0000193E  002E              add [rsi],ch
00001940  62                db 0x62
00001941  7373              jnc 0x19b6
00001943  002E              add [rsi],ch
00001945  63                db 0x63
00001946  6F                outsd
00001947  6D                insd
00001948  6D                insd
00001949  656E              gs outsb
0000194B  7400              jz 0x194d
0000194D  0000              add [rax],al
0000194F  0000              add [rax],al
00001951  0000              add [rax],al
00001953  0000              add [rax],al
00001955  0000              add [rax],al
00001957  0000              add [rax],al
00001959  0000              add [rax],al
0000195B  0000              add [rax],al
0000195D  0000              add [rax],al
0000195F  0000              add [rax],al
00001961  0000              add [rax],al
00001963  0000              add [rax],al
00001965  0000              add [rax],al
00001967  0000              add [rax],al
00001969  0000              add [rax],al
0000196B  0000              add [rax],al
0000196D  0000              add [rax],al
0000196F  0000              add [rax],al
00001971  0000              add [rax],al
00001973  0000              add [rax],al
00001975  0000              add [rax],al
00001977  0000              add [rax],al
00001979  0000              add [rax],al
0000197B  0000              add [rax],al
0000197D  0000              add [rax],al
0000197F  0000              add [rax],al
00001981  0000              add [rax],al
00001983  0000              add [rax],al
00001985  0000              add [rax],al
00001987  0000              add [rax],al
00001989  0000              add [rax],al
0000198B  0000              add [rax],al
0000198D  0000              add [rax],al
0000198F  001B              add [rbx],bl
00001991  0000              add [rax],al
00001993  0001              add [rcx],al
00001995  0000              add [rax],al
00001997  0002              add [rdx],al
00001999  0000              add [rax],al
0000199B  0000              add [rax],al
0000199D  0000              add [rax],al
0000199F  0038              add [rax],bh
000019A1  0200              add al,[rax]
000019A3  0000              add [rax],al
000019A5  0000              add [rax],al
000019A7  0038              add [rax],bh
000019A9  0200              add al,[rax]
000019AB  0000              add [rax],al
000019AD  0000              add [rax],al
000019AF  001C00            add [rax+rax],bl
000019B2  0000              add [rax],al
000019B4  0000              add [rax],al
000019B6  0000              add [rax],al
000019B8  0000              add [rax],al
000019BA  0000              add [rax],al
000019BC  0000              add [rax],al
000019BE  0000              add [rax],al
000019C0  0100              add [rax],eax
000019C2  0000              add [rax],al
000019C4  0000              add [rax],al
000019C6  0000              add [rax],al
000019C8  0000              add [rax],al
000019CA  0000              add [rax],al
000019CC  0000              add [rax],al
000019CE  0000              add [rax],al
000019D0  2300              and eax,[rax]
000019D2  0000              add [rax],al
000019D4  07                db 0x07
000019D5  0000              add [rax],al
000019D7  0002              add [rdx],al
000019D9  0000              add [rax],al
000019DB  0000              add [rax],al
000019DD  0000              add [rax],al
000019DF  00540200          add [rdx+rax+0x0],dl
000019E3  0000              add [rax],al
000019E5  0000              add [rax],al
000019E7  00540200          add [rdx+rax+0x0],dl
000019EB  0000              add [rax],al
000019ED  0000              add [rax],al
000019EF  0020              add [rax],ah
000019F1  0000              add [rax],al
000019F3  0000              add [rax],al
000019F5  0000              add [rax],al
000019F7  0000              add [rax],al
000019F9  0000              add [rax],al
000019FB  0000              add [rax],al
000019FD  0000              add [rax],al
000019FF  000400            add [rax+rax],al
00001A02  0000              add [rax],al
00001A04  0000              add [rax],al
00001A06  0000              add [rax],al
00001A08  0000              add [rax],al
00001A0A  0000              add [rax],al
00001A0C  0000              add [rax],al
00001A0E  0000              add [rax],al
00001A10  3100              xor [rax],eax
00001A12  0000              add [rax],al
00001A14  07                db 0x07
00001A15  0000              add [rax],al
00001A17  0002              add [rdx],al
00001A19  0000              add [rax],al
00001A1B  0000              add [rax],al
00001A1D  0000              add [rax],al
00001A1F  00740200          add [rdx+rax+0x0],dh
00001A23  0000              add [rax],al
00001A25  0000              add [rax],al
00001A27  00740200          add [rdx+rax+0x0],dh
00001A2B  0000              add [rax],al
00001A2D  0000              add [rax],al
00001A2F  002400            add [rax+rax],ah
00001A32  0000              add [rax],al
00001A34  0000              add [rax],al
00001A36  0000              add [rax],al
00001A38  0000              add [rax],al
00001A3A  0000              add [rax],al
00001A3C  0000              add [rax],al
00001A3E  0000              add [rax],al
00001A40  0400              add al,0x0
00001A42  0000              add [rax],al
00001A44  0000              add [rax],al
00001A46  0000              add [rax],al
00001A48  0000              add [rax],al
00001A4A  0000              add [rax],al
00001A4C  0000              add [rax],al
00001A4E  0000              add [rax],al
00001A50  440000            add [rax],r8b
00001A53  00F6              add dh,dh
00001A55  FF                db 0xff
00001A56  FF6F02            jmp dword far [rdi+0x2]
00001A59  0000              add [rax],al
00001A5B  0000              add [rax],al
00001A5D  0000              add [rax],al
00001A5F  009802000000      add [rax+0x2],bl
00001A65  0000              add [rax],al
00001A67  009802000000      add [rax+0x2],bl
00001A6D  0000              add [rax],al
00001A6F  001C00            add [rax+rax],bl
00001A72  0000              add [rax],al
00001A74  0000              add [rax],al
00001A76  0000              add [rax],al
00001A78  0500000000        add eax,0x0
00001A7D  0000              add [rax],al
00001A7F  0008              add [rax],cl
00001A81  0000              add [rax],al
00001A83  0000              add [rax],al
00001A85  0000              add [rax],al
00001A87  0000              add [rax],al
00001A89  0000              add [rax],al
00001A8B  0000              add [rax],al
00001A8D  0000              add [rax],al
00001A8F  004E00            add [rsi+0x0],cl
00001A92  0000              add [rax],al
00001A94  0B00              or eax,[rax]
00001A96  0000              add [rax],al
00001A98  0200              add al,[rax]
00001A9A  0000              add [rax],al
00001A9C  0000              add [rax],al
00001A9E  0000              add [rax],al
00001AA0  B802000000        mov eax,0x2
00001AA5  0000              add [rax],al
00001AA7  00B802000000      add [rax+0x2],bh
00001AAD  0000              add [rax],al
00001AAF  00A800000000      add [rax+0x0],ch
00001AB5  0000              add [rax],al
00001AB7  0006              add [rsi],al
00001AB9  0000              add [rax],al
00001ABB  0001              add [rcx],al
00001ABD  0000              add [rax],al
00001ABF  0008              add [rax],cl
00001AC1  0000              add [rax],al
00001AC3  0000              add [rax],al
00001AC5  0000              add [rax],al
00001AC7  0018              add [rax],bl
00001AC9  0000              add [rax],al
00001ACB  0000              add [rax],al
00001ACD  0000              add [rax],al
00001ACF  005600            add [rsi+0x0],dl
00001AD2  0000              add [rax],al
00001AD4  0300              add eax,[rax]
00001AD6  0000              add [rax],al
00001AD8  0200              add al,[rax]
00001ADA  0000              add [rax],al
00001ADC  0000              add [rax],al
00001ADE  0000              add [rax],al
00001AE0  60                db 0x60
00001AE1  0300              add eax,[rax]
00001AE3  0000              add [rax],al
00001AE5  0000              add [rax],al
00001AE7  006003            add [rax+0x3],ah
00001AEA  0000              add [rax],al
00001AEC  0000              add [rax],al
00001AEE  0000              add [rax],al
00001AF0  8400              test [rax],al
00001AF2  0000              add [rax],al
00001AF4  0000              add [rax],al
00001AF6  0000              add [rax],al
00001AF8  0000              add [rax],al
00001AFA  0000              add [rax],al
00001AFC  0000              add [rax],al
00001AFE  0000              add [rax],al
00001B00  0100              add [rax],eax
00001B02  0000              add [rax],al
00001B04  0000              add [rax],al
00001B06  0000              add [rax],al
00001B08  0000              add [rax],al
00001B0A  0000              add [rax],al
00001B0C  0000              add [rax],al
00001B0E  0000              add [rax],al
00001B10  5E                pop rsi
00001B11  0000              add [rax],al
00001B13  00FF              add bh,bh
00001B15  FF                db 0xff
00001B16  FF6F02            jmp dword far [rdi+0x2]
00001B19  0000              add [rax],al
00001B1B  0000              add [rax],al
00001B1D  0000              add [rax],al
00001B1F  00E4              add ah,ah
00001B21  0300              add eax,[rax]
00001B23  0000              add [rax],al
00001B25  0000              add [rax],al
00001B27  00E4              add ah,ah
00001B29  0300              add eax,[rax]
00001B2B  0000              add [rax],al
00001B2D  0000              add [rax],al
00001B2F  000E              add [rsi],cl
00001B31  0000              add [rax],al
00001B33  0000              add [rax],al
00001B35  0000              add [rax],al
00001B37  000500000000      add [rel 0x1b3d],al
00001B3D  0000              add [rax],al
00001B3F  0002              add [rdx],al
00001B41  0000              add [rax],al
00001B43  0000              add [rax],al
00001B45  0000              add [rax],al
00001B47  0002              add [rdx],al
00001B49  0000              add [rax],al
00001B4B  0000              add [rax],al
00001B4D  0000              add [rax],al
00001B4F  006B00            add [rbx+0x0],ch
00001B52  0000              add [rax],al
00001B54  FE                db 0xfe
00001B55  FF                db 0xff
00001B56  FF6F02            jmp dword far [rdi+0x2]
00001B59  0000              add [rax],al
00001B5B  0000              add [rax],al
00001B5D  0000              add [rax],al
00001B5F  00F8              add al,bh
00001B61  0300              add eax,[rax]
00001B63  0000              add [rax],al
00001B65  0000              add [rax],al
00001B67  00F8              add al,bh
00001B69  0300              add eax,[rax]
00001B6B  0000              add [rax],al
00001B6D  0000              add [rax],al
00001B6F  0020              add [rax],ah
00001B71  0000              add [rax],al
00001B73  0000              add [rax],al
00001B75  0000              add [rax],al
00001B77  0006              add [rsi],al
00001B79  0000              add [rax],al
00001B7B  0001              add [rcx],al
00001B7D  0000              add [rax],al
00001B7F  0008              add [rax],cl
00001B81  0000              add [rax],al
00001B83  0000              add [rax],al
00001B85  0000              add [rax],al
00001B87  0000              add [rax],al
00001B89  0000              add [rax],al
00001B8B  0000              add [rax],al
00001B8D  0000              add [rax],al
00001B8F  007A00            add [rdx+0x0],bh
00001B92  0000              add [rax],al
00001B94  0400              add al,0x0
00001B96  0000              add [rax],al
00001B98  0200              add al,[rax]
00001B9A  0000              add [rax],al
00001B9C  0000              add [rax],al
00001B9E  0000              add [rax],al
00001BA0  180400            sbb [rax+rax],al
00001BA3  0000              add [rax],al
00001BA5  0000              add [rax],al
00001BA7  0018              add [rax],bl
00001BA9  0400              add al,0x0
00001BAB  0000              add [rax],al
00001BAD  0000              add [rax],al
00001BAF  00C0              add al,al
00001BB1  0000              add [rax],al
00001BB3  0000              add [rax],al
00001BB5  0000              add [rax],al
00001BB7  000500000000      add [rel 0x1bbd],al
00001BBD  0000              add [rax],al
00001BBF  0008              add [rax],cl
00001BC1  0000              add [rax],al
00001BC3  0000              add [rax],al
00001BC5  0000              add [rax],al
00001BC7  0018              add [rax],bl
00001BC9  0000              add [rax],al
00001BCB  0000              add [rax],al
00001BCD  0000              add [rax],al
00001BCF  00840000000400    add [rax+rax+0x40000],al
00001BD6  0000              add [rax],al
00001BD8  420000            add [rax],al
00001BDB  0000              add [rax],al
00001BDD  0000              add [rax],al
00001BDF  00D8              add al,bl
00001BE1  0400              add al,0x0
00001BE3  0000              add [rax],al
00001BE5  0000              add [rax],al
00001BE7  00D8              add al,bl
00001BE9  0400              add al,0x0
00001BEB  0000              add [rax],al
00001BED  0000              add [rax],al
00001BEF  0018              add [rax],bl
00001BF1  0000              add [rax],al
00001BF3  0000              add [rax],al
00001BF5  0000              add [rax],al
00001BF7  000500000016      add [rel 0x16001bfd],al
00001BFD  0000              add [rax],al
00001BFF  0008              add [rax],cl
00001C01  0000              add [rax],al
00001C03  0000              add [rax],al
00001C05  0000              add [rax],al
00001C07  0018              add [rax],bl
00001C09  0000              add [rax],al
00001C0B  0000              add [rax],al
00001C0D  0000              add [rax],al
00001C0F  008E00000001      add [rsi+0x1000000],cl
00001C15  0000              add [rax],al
00001C17  0006              add [rsi],al
00001C19  0000              add [rax],al
00001C1B  0000              add [rax],al
00001C1D  0000              add [rax],al
00001C1F  00F0              add al,dh
00001C21  0400              add al,0x0
00001C23  0000              add [rax],al
00001C25  0000              add [rax],al
00001C27  00F0              add al,dh
00001C29  0400              add al,0x0
00001C2B  0000              add [rax],al
00001C2D  0000              add [rax],al
00001C2F  0017              add [rdi],dl
00001C31  0000              add [rax],al
00001C33  0000              add [rax],al
00001C35  0000              add [rax],al
00001C37  0000              add [rax],al
00001C39  0000              add [rax],al
00001C3B  0000              add [rax],al
00001C3D  0000              add [rax],al
00001C3F  000400            add [rax+rax],al
00001C42  0000              add [rax],al
00001C44  0000              add [rax],al
00001C46  0000              add [rax],al
00001C48  0000              add [rax],al
00001C4A  0000              add [rax],al
00001C4C  0000              add [rax],al
00001C4E  0000              add [rax],al
00001C50  8900              mov [rax],eax
00001C52  0000              add [rax],al
00001C54  0100              add [rax],eax
00001C56  0000              add [rax],al
00001C58  06                db 0x06
00001C59  0000              add [rax],al
00001C5B  0000              add [rax],al
00001C5D  0000              add [rax],al
00001C5F  0010              add [rax],dl
00001C61  0500000000        add eax,0x0
00001C66  0000              add [rax],al
00001C68  100500000000      adc [rel 0x1c6e],al
00001C6E  0000              add [rax],al
00001C70  2000              and [rax],al
00001C72  0000              add [rax],al
00001C74  0000              add [rax],al
00001C76  0000              add [rax],al
00001C78  0000              add [rax],al
00001C7A  0000              add [rax],al
00001C7C  0000              add [rax],al
00001C7E  0000              add [rax],al
00001C80  1000              adc [rax],al
00001C82  0000              add [rax],al
00001C84  0000              add [rax],al
00001C86  0000              add [rax],al
00001C88  1000              adc [rax],al
00001C8A  0000              add [rax],al
00001C8C  0000              add [rax],al
00001C8E  0000              add [rax],al
00001C90  94                xchg eax,esp
00001C91  0000              add [rax],al
00001C93  0001              add [rcx],al
00001C95  0000              add [rax],al
00001C97  0006              add [rsi],al
00001C99  0000              add [rax],al
00001C9B  0000              add [rax],al
00001C9D  0000              add [rax],al
00001C9F  0030              add [rax],dh
00001CA1  0500000000        add eax,0x0
00001CA6  0000              add [rax],al
00001CA8  300500000000      xor [rel 0x1cae],al
00001CAE  0000              add [rax],al
00001CB0  0800              or [rax],al
00001CB2  0000              add [rax],al
00001CB4  0000              add [rax],al
00001CB6  0000              add [rax],al
00001CB8  0000              add [rax],al
00001CBA  0000              add [rax],al
00001CBC  0000              add [rax],al
00001CBE  0000              add [rax],al
00001CC0  0800              or [rax],al
00001CC2  0000              add [rax],al
00001CC4  0000              add [rax],al
00001CC6  0000              add [rax],al
00001CC8  0800              or [rax],al
00001CCA  0000              add [rax],al
00001CCC  0000              add [rax],al
00001CCE  0000              add [rax],al
00001CD0  9D                popf
00001CD1  0000              add [rax],al
00001CD3  0001              add [rcx],al
00001CD5  0000              add [rax],al
00001CD7  0006              add [rsi],al
00001CD9  0000              add [rax],al
00001CDB  0000              add [rax],al
00001CDD  0000              add [rax],al
00001CDF  004005            add [rax+0x5],al
00001CE2  0000              add [rax],al
00001CE4  0000              add [rax],al
00001CE6  0000              add [rax],al
00001CE8  400500000000      add eax,0x0
00001CEE  0000              add [rax],al
00001CF0  F20100            repne add [rax],eax
00001CF3  0000              add [rax],al
00001CF5  0000              add [rax],al
00001CF7  0000              add [rax],al
00001CF9  0000              add [rax],al
00001CFB  0000              add [rax],al
00001CFD  0000              add [rax],al
00001CFF  0010              add [rax],dl
00001D01  0000              add [rax],al
00001D03  0000              add [rax],al
00001D05  0000              add [rax],al
00001D07  0000              add [rax],al
00001D09  0000              add [rax],al
00001D0B  0000              add [rax],al
00001D0D  0000              add [rax],al
00001D0F  00A300000001      add [rbx+0x1000000],ah
00001D15  0000              add [rax],al
00001D17  0006              add [rsi],al
00001D19  0000              add [rax],al
00001D1B  0000              add [rax],al
00001D1D  0000              add [rax],al
00001D1F  003407            add [rdi+rax],dh
00001D22  0000              add [rax],al
00001D24  0000              add [rax],al
00001D26  0000              add [rax],al
00001D28  3407              xor al,0x7
00001D2A  0000              add [rax],al
00001D2C  0000              add [rax],al
00001D2E  0000              add [rax],al
00001D30  0900              or [rax],eax
00001D32  0000              add [rax],al
00001D34  0000              add [rax],al
00001D36  0000              add [rax],al
00001D38  0000              add [rax],al
00001D3A  0000              add [rax],al
00001D3C  0000              add [rax],al
00001D3E  0000              add [rax],al
00001D40  0400              add al,0x0
00001D42  0000              add [rax],al
00001D44  0000              add [rax],al
00001D46  0000              add [rax],al
00001D48  0000              add [rax],al
00001D4A  0000              add [rax],al
00001D4C  0000              add [rax],al
00001D4E  0000              add [rax],al
00001D50  A900000001        test eax,0x1000000
00001D55  0000              add [rax],al
00001D57  0002              add [rdx],al
00001D59  0000              add [rax],al
00001D5B  0000              add [rax],al
00001D5D  0000              add [rax],al
00001D5F  004007            add [rax+0x7],al
00001D62  0000              add [rax],al
00001D64  0000              add [rax],al
00001D66  0000              add [rax],al
00001D68  40                rex
00001D69  07                db 0x07
00001D6A  0000              add [rax],al
00001D6C  0000              add [rax],al
00001D6E  0000              add [rax],al
00001D70  17                db 0x17
00001D71  0000              add [rax],al
00001D73  0000              add [rax],al
00001D75  0000              add [rax],al
00001D77  0000              add [rax],al
00001D79  0000              add [rax],al
00001D7B  0000              add [rax],al
00001D7D  0000              add [rax],al
00001D7F  000400            add [rax+rax],al
00001D82  0000              add [rax],al
00001D84  0000              add [rax],al
00001D86  0000              add [rax],al
00001D88  0000              add [rax],al
00001D8A  0000              add [rax],al
00001D8C  0000              add [rax],al
00001D8E  0000              add [rax],al
00001D90  B100              mov cl,0x0
00001D92  0000              add [rax],al
00001D94  0100              add [rax],eax
00001D96  0000              add [rax],al
00001D98  0200              add al,[rax]
00001D9A  0000              add [rax],al
00001D9C  0000              add [rax],al
00001D9E  0000              add [rax],al
00001DA0  58                pop rax
00001DA1  07                db 0x07
00001DA2  0000              add [rax],al
00001DA4  0000              add [rax],al
00001DA6  0000              add [rax],al
00001DA8  58                pop rax
00001DA9  07                db 0x07
00001DAA  0000              add [rax],al
00001DAC  0000              add [rax],al
00001DAE  0000              add [rax],al
00001DB0  440000            add [rax],r8b
00001DB3  0000              add [rax],al
00001DB5  0000              add [rax],al
00001DB7  0000              add [rax],al
00001DB9  0000              add [rax],al
00001DBB  0000              add [rax],al
00001DBD  0000              add [rax],al
00001DBF  000400            add [rax+rax],al
00001DC2  0000              add [rax],al
00001DC4  0000              add [rax],al
00001DC6  0000              add [rax],al
00001DC8  0000              add [rax],al
00001DCA  0000              add [rax],al
00001DCC  0000              add [rax],al
00001DCE  0000              add [rax],al
00001DD0  BF00000001        mov edi,0x1000000
00001DD5  0000              add [rax],al
00001DD7  0002              add [rdx],al
00001DD9  0000              add [rax],al
00001DDB  0000              add [rax],al
00001DDD  0000              add [rax],al
00001DDF  00A007000000      add [rax+0x7],ah
00001DE5  0000              add [rax],al
00001DE7  00A007000000      add [rax+0x7],ah
00001DED  0000              add [rax],al
00001DEF  0028              add [rax],ch
00001DF1  0100              add [rax],eax
00001DF3  0000              add [rax],al
00001DF5  0000              add [rax],al
00001DF7  0000              add [rax],al
00001DF9  0000              add [rax],al
00001DFB  0000              add [rax],al
00001DFD  0000              add [rax],al
00001DFF  0008              add [rax],cl
00001E01  0000              add [rax],al
00001E03  0000              add [rax],al
00001E05  0000              add [rax],al
00001E07  0000              add [rax],al
00001E09  0000              add [rax],al
00001E0B  0000              add [rax],al
00001E0D  0000              add [rax],al
00001E0F  00C9              add cl,cl
00001E11  0000              add [rax],al
00001E13  000E              add [rsi],cl
00001E15  0000              add [rax],al
00001E17  0003              add [rbx],al
00001E19  0000              add [rax],al
00001E1B  0000              add [rax],al
00001E1D  0000              add [rax],al
00001E1F  00B80D200000      add [rax+0x200d],bh
00001E25  0000              add [rax],al
00001E27  00B80D000000      add [rax+0xd],bh
00001E2D  0000              add [rax],al
00001E2F  0008              add [rax],cl
00001E31  0000              add [rax],al
00001E33  0000              add [rax],al
00001E35  0000              add [rax],al
00001E37  0000              add [rax],al
00001E39  0000              add [rax],al
00001E3B  0000              add [rax],al
00001E3D  0000              add [rax],al
00001E3F  0008              add [rax],cl
00001E41  0000              add [rax],al
00001E43  0000              add [rax],al
00001E45  0000              add [rax],al
00001E47  0008              add [rax],cl
00001E49  0000              add [rax],al
00001E4B  0000              add [rax],al
00001E4D  0000              add [rax],al
00001E4F  00D5              add ch,dl
00001E51  0000              add [rax],al
00001E53  000F              add [rdi],cl
00001E55  0000              add [rax],al
00001E57  0003              add [rbx],al
00001E59  0000              add [rax],al
00001E5B  0000              add [rax],al
00001E5D  0000              add [rax],al
00001E5F  00C0              add al,al
00001E61  0D20000000        or eax,0x20
00001E66  0000              add [rax],al
00001E68  C00D0000000000    ror byte [rel 0x1e6f],byte 0x0
00001E6F  0008              add [rax],cl
00001E71  0000              add [rax],al
00001E73  0000              add [rax],al
00001E75  0000              add [rax],al
00001E77  0000              add [rax],al
00001E79  0000              add [rax],al
00001E7B  0000              add [rax],al
00001E7D  0000              add [rax],al
00001E7F  0008              add [rax],cl
00001E81  0000              add [rax],al
00001E83  0000              add [rax],al
00001E85  0000              add [rax],al
00001E87  0008              add [rax],cl
00001E89  0000              add [rax],al
00001E8B  0000              add [rax],al
00001E8D  0000              add [rax],al
00001E8F  00E1              add cl,ah
00001E91  0000              add [rax],al
00001E93  0006              add [rsi],al
00001E95  0000              add [rax],al
00001E97  0003              add [rbx],al
00001E99  0000              add [rax],al
00001E9B  0000              add [rax],al
00001E9D  0000              add [rax],al
00001E9F  00C8              add al,cl
00001EA1  0D20000000        or eax,0x20
00001EA6  0000              add [rax],al
00001EA8  C80D0000          enter 0xd,0x0
00001EAC  0000              add [rax],al
00001EAE  0000              add [rax],al
00001EB0  F00100            lock add [rax],eax
00001EB3  0000              add [rax],al
00001EB5  0000              add [rax],al
00001EB7  0006              add [rsi],al
00001EB9  0000              add [rax],al
00001EBB  0000              add [rax],al
00001EBD  0000              add [rax],al
00001EBF  0008              add [rax],cl
00001EC1  0000              add [rax],al
00001EC3  0000              add [rax],al
00001EC5  0000              add [rax],al
00001EC7  0010              add [rax],dl
00001EC9  0000              add [rax],al
00001ECB  0000              add [rax],al
00001ECD  0000              add [rax],al
00001ECF  009800000001      add [rax+0x1000000],bl
00001ED5  0000              add [rax],al
00001ED7  0003              add [rbx],al
00001ED9  0000              add [rax],al
00001EDB  0000              add [rax],al
00001EDD  0000              add [rax],al
00001EDF  00B80F200000      add [rax+0x200f],bh
00001EE5  0000              add [rax],al
00001EE7  00B80F000000      add [rax+0xf],bh
00001EED  0000              add [rax],al
00001EEF  004800            add [rax+0x0],cl
00001EF2  0000              add [rax],al
00001EF4  0000              add [rax],al
00001EF6  0000              add [rax],al
00001EF8  0000              add [rax],al
00001EFA  0000              add [rax],al
00001EFC  0000              add [rax],al
00001EFE  0000              add [rax],al
00001F00  0800              or [rax],al
00001F02  0000              add [rax],al
00001F04  0000              add [rax],al
00001F06  0000              add [rax],al
00001F08  0800              or [rax],al
00001F0A  0000              add [rax],al
00001F0C  0000              add [rax],al
00001F0E  0000              add [rax],al
00001F10  EA                db 0xea
00001F11  0000              add [rax],al
00001F13  0001              add [rcx],al
00001F15  0000              add [rax],al
00001F17  0003              add [rbx],al
00001F19  0000              add [rax],al
00001F1B  0000              add [rax],al
00001F1D  0000              add [rax],al
00001F1F  0000              add [rax],al
00001F21  1020              adc [rax],ah
00001F23  0000              add [rax],al
00001F25  0000              add [rax],al
00001F27  0000              add [rax],al
00001F29  1000              adc [rax],al
00001F2B  0000              add [rax],al
00001F2D  0000              add [rax],al
00001F2F  0010              add [rax],dl
00001F31  0000              add [rax],al
00001F33  0000              add [rax],al
00001F35  0000              add [rax],al
00001F37  0000              add [rax],al
00001F39  0000              add [rax],al
00001F3B  0000              add [rax],al
00001F3D  0000              add [rax],al
00001F3F  0008              add [rax],cl
00001F41  0000              add [rax],al
00001F43  0000              add [rax],al
00001F45  0000              add [rax],al
00001F47  0000              add [rax],al
00001F49  0000              add [rax],al
00001F4B  0000              add [rax],al
00001F4D  0000              add [rax],al
00001F4F  00F0              add al,dh
00001F51  0000              add [rax],al
00001F53  0008              add [rax],cl
00001F55  0000              add [rax],al
00001F57  0003              add [rbx],al
00001F59  0000              add [rax],al
00001F5B  0000              add [rax],al
00001F5D  0000              add [rax],al
00001F5F  0010              add [rax],dl
00001F61  1020              adc [rax],ah
00001F63  0000              add [rax],al
00001F65  0000              add [rax],al
00001F67  0010              add [rax],dl
00001F69  1000              adc [rax],al
00001F6B  0000              add [rax],al
00001F6D  0000              add [rax],al
00001F6F  0008              add [rax],cl
00001F71  0000              add [rax],al
00001F73  0000              add [rax],al
00001F75  0000              add [rax],al
00001F77  0000              add [rax],al
00001F79  0000              add [rax],al
00001F7B  0000              add [rax],al
00001F7D  0000              add [rax],al
00001F7F  0001              add [rcx],al
00001F81  0000              add [rax],al
00001F83  0000              add [rax],al
00001F85  0000              add [rax],al
00001F87  0000              add [rax],al
00001F89  0000              add [rax],al
00001F8B  0000              add [rax],al
00001F8D  0000              add [rax],al
00001F8F  00F5              add ch,dh
00001F91  0000              add [rax],al
00001F93  0001              add [rcx],al
00001F95  0000              add [rax],al
00001F97  0030              add [rax],dh
00001F99  0000              add [rax],al
00001F9B  0000              add [rax],al
00001F9D  0000              add [rax],al
00001F9F  0000              add [rax],al
00001FA1  0000              add [rax],al
00001FA3  0000              add [rax],al
00001FA5  0000              add [rax],al
00001FA7  0010              add [rax],dl
00001FA9  1000              adc [rax],al
00001FAB  0000              add [rax],al
00001FAD  0000              add [rax],al
00001FAF  002B              add [rbx],ch
00001FB1  0000              add [rax],al
00001FB3  0000              add [rax],al
00001FB5  0000              add [rax],al
00001FB7  0000              add [rax],al
00001FB9  0000              add [rax],al
00001FBB  0000              add [rax],al
00001FBD  0000              add [rax],al
00001FBF  0001              add [rcx],al
00001FC1  0000              add [rax],al
00001FC3  0000              add [rax],al
00001FC5  0000              add [rax],al
00001FC7  0001              add [rcx],al
00001FC9  0000              add [rax],al
00001FCB  0000              add [rax],al
00001FCD  0000              add [rax],al
00001FCF  0001              add [rcx],al
00001FD1  0000              add [rax],al
00001FD3  0002              add [rdx],al
00001FD5  0000              add [rax],al
00001FD7  0000              add [rax],al
00001FD9  0000              add [rax],al
00001FDB  0000              add [rax],al
00001FDD  0000              add [rax],al
00001FDF  0000              add [rax],al
00001FE1  0000              add [rax],al
00001FE3  0000              add [rax],al
00001FE5  0000              add [rax],al
00001FE7  004010            add [rax+0x10],al
00001FEA  0000              add [rax],al
00001FEC  0000              add [rax],al
00001FEE  0000              add [rax],al
00001FF0  0006              add [rsi],al
00001FF2  0000              add [rax],al
00001FF4  0000              add [rax],al
00001FF6  0000              add [rax],al
00001FF8  1B00              sbb eax,[rax]
00001FFA  0000              add [rax],al
00001FFC  2B00              sub eax,[rax]
00001FFE  0000              add [rax],al
00002000  0800              or [rax],al
00002002  0000              add [rax],al
00002004  0000              add [rax],al
00002006  0000              add [rax],al
00002008  1800              sbb [rax],al
0000200A  0000              add [rax],al
0000200C  0000              add [rax],al
0000200E  0000              add [rax],al
00002010  0900              or [rax],eax
00002012  0000              add [rax],al
00002014  0300              add eax,[rax]
00002016  0000              add [rax],al
00002018  0000              add [rax],al
0000201A  0000              add [rax],al
0000201C  0000              add [rax],al
0000201E  0000              add [rax],al
00002020  0000              add [rax],al
00002022  0000              add [rax],al
00002024  0000              add [rax],al
00002026  0000              add [rax],al
00002028  40                rex
00002029  16                db 0x16
0000202A  0000              add [rax],al
0000202C  0000              add [rax],al
0000202E  0000              add [rax],al
00002030  0F0200            lar eax,[rax]
00002033  0000              add [rax],al
00002035  0000              add [rax],al
00002037  0000              add [rax],al
00002039  0000              add [rax],al
0000203B  0000              add [rax],al
0000203D  0000              add [rax],al
0000203F  0001              add [rcx],al
00002041  0000              add [rax],al
00002043  0000              add [rax],al
00002045  0000              add [rax],al
00002047  0000              add [rax],al
00002049  0000              add [rax],al
0000204B  0000              add [rax],al
0000204D  0000              add [rax],al
0000204F  0011              add [rcx],dl
00002051  0000              add [rax],al
00002053  0003              add [rbx],al
00002055  0000              add [rax],al
00002057  0000              add [rax],al
00002059  0000              add [rax],al
0000205B  0000              add [rax],al
0000205D  0000              add [rax],al
0000205F  0000              add [rax],al
00002061  0000              add [rax],al
00002063  0000              add [rax],al
00002065  0000              add [rax],al
00002067  004F18            add [rdi+0x18],cl
0000206A  0000              add [rax],al
0000206C  0000              add [rax],al
0000206E  0000              add [rax],al
00002070  FE00              inc byte [rax]
00002072  0000              add [rax],al
00002074  0000              add [rax],al
00002076  0000              add [rax],al
00002078  0000              add [rax],al
0000207A  0000              add [rax],al
0000207C  0000              add [rax],al
0000207E  0000              add [rax],al
00002080  0100              add [rax],eax
00002082  0000              add [rax],al
00002084  0000              add [rax],al
00002086  0000              add [rax],al
00002088  0000              add [rax],al
0000208A  0000              add [rax],al
0000208C  0000              add [rax],al
0000208E  0000              add [rax],al
